ccopy_reg
_reconstructor
p1
(cmatplotlib.font_manager
FontManager
p2
c__builtin__
object
p3
NtRp4
(dp5
S'ttflist'
p6
(lp7
g1
(cmatplotlib.font_manager
FontEntry
p8
g3
NtRp9
(dp10
S'style'
p11
Vitalic
p12
sS'name'
p13
VSTIXGeneral
p14
sS'weight'
p15
I700
sS'stretch'
p16
Vnormal
p17
sS'variant'
p18
g17
sS'fname'
p19
V/home/philipp/anaconda2/lib/python2.7/site-packages/matplotlib/mpl-data/fonts/ttf/STIXGeneralBolIta.ttf
p20
sS'size'
p21
Vscalable
p22
sbag1
(g8
g3
NtRp23
(dp24
g11
g17
sg13
VSTIXGeneral
p25
sg15
I400
sg16
g17
sg18
g17
sg19
V/home/philipp/anaconda2/lib/python2.7/site-packages/matplotlib/mpl-data/fonts/ttf/STIXGeneral.ttf
p26
sg21
g22
sbag1
(g8
g3
NtRp27
(dp28
g11
g17
sg13
VBitstream Vera Sans
p29
sg15
I700
sg16
g17
sg18
g17
sg19
V/home/philipp/anaconda2/lib/python2.7/site-packages/matplotlib/mpl-data/fonts/ttf/VeraBd.ttf
p30
sg21
g22
sbag1
(g8
g3
NtRp31
(dp32
g11
g17
sg13
Vcmex10
p33
sg15
I400
sg16
g17
sg18
g17
sg19
V/home/philipp/anaconda2/lib/python2.7/site-packages/matplotlib/mpl-data/fonts/ttf/cmex10.ttf
p34
sg21
g22
sbag1
(g8
g3
NtRp35
(dp36
g11
Voblique
p37
sg13
VDejaVu Sans
p38
sg15
I700
sg16
g17
sg18
g17
sg19
V/home/philipp/anaconda2/lib/python2.7/site-packages/matplotlib/mpl-data/fonts/ttf/DejaVuSans-BoldOblique.ttf
p39
sg21
g22
sbag1
(g8
g3
NtRp40
(dp41
g11
g17
sg13
VSTIXSizeFourSym
p42
sg15
I400
sg16
g17
sg18
g17
sg19
V/home/philipp/anaconda2/lib/python2.7/site-packages/matplotlib/mpl-data/fonts/ttf/STIXSizFourSymReg.ttf
p43
sg21
g22
sbag1
(g8
g3
NtRp44
(dp45
g11
g17
sg13
Vcmss10
p46
sg15
I400
sg16
g17
sg18
g17
sg19
V/home/philipp/anaconda2/lib/python2.7/site-packages/matplotlib/mpl-data/fonts/ttf/cmss10.ttf
p47
sg21
g22
sbag1
(g8
g3
NtRp48
(dp49
g11
g37
sg13
VBitstream Vera Sans
p50
sg15
I700
sg16
g17
sg18
g17
sg19
V/home/philipp/anaconda2/lib/python2.7/site-packages/matplotlib/mpl-data/fonts/ttf/VeraBI.ttf
p51
sg21
g22
sbag1
(g8
g3
NtRp52
(dp53
g11
g17
sg13
VDejaVu Serif
p54
sg15
I400
sg16
g17
sg18
g17
sg19
V/home/philipp/anaconda2/lib/python2.7/site-packages/matplotlib/mpl-data/fonts/ttf/DejaVuSerif.ttf
p55
sg21
g22
sbag1
(g8
g3
NtRp56
(dp57
g11
g17
sg13
VDejaVu Sans Display
p58
sg15
I400
sg16
g17
sg18
g17
sg19
V/home/philipp/anaconda2/lib/python2.7/site-packages/matplotlib/mpl-data/fonts/ttf/DejaVuSansDisplay.ttf
p59
sg21
g22
sbag1
(g8
g3
NtRp60
(dp61
g11
g17
sg13
Vcmtt10
p62
sg15
I400
sg16
g17
sg18
g17
sg19
V/home/philipp/anaconda2/lib/python2.7/site-packages/matplotlib/mpl-data/fonts/ttf/cmtt10.ttf
p63
sg21
g22
sbag1
(g8
g3
NtRp64
(dp65
g11
g17
sg13
VDejaVu Sans Mono
p66
sg15
I700
sg16
g17
sg18
g17
sg19
V/home/philipp/anaconda2/lib/python2.7/site-packages/matplotlib/mpl-data/fonts/ttf/DejaVuSansMono-Bold.ttf
p67
sg21
g22
sbag1
(g8
g3
NtRp68
(dp69
g11
g37
sg13
VBitstream Vera Sans Mono
p70
sg15
I700
sg16
g17
sg18
g17
sg19
V/home/philipp/anaconda2/lib/python2.7/site-packages/matplotlib/mpl-data/fonts/ttf/VeraMoBI.ttf
p71
sg21
g22
sbag1
(g8
g3
NtRp72
(dp73
g11
g17
sg13
VBitstream Vera Sans Mono
p74
sg15
I700
sg16
g17
sg18
g17
sg19
V/home/philipp/anaconda2/lib/python2.7/site-packages/matplotlib/mpl-data/fonts/ttf/VeraMoBd.ttf
p75
sg21
g22
sbag1
(g8
g3
NtRp76
(dp77
g11
g37
sg13
VBitstream Vera Sans
p78
sg15
I400
sg16
g17
sg18
g17
sg19
V/home/philipp/anaconda2/lib/python2.7/site-packages/matplotlib/mpl-data/fonts/ttf/VeraIt.ttf
p79
sg21
g22
sbag1
(g8
g3
NtRp80
(dp81
g11
g17
sg13
VDejaVu Sans Mono
p82
sg15
I400
sg16
g17
sg18
g17
sg19
V/home/philipp/anaconda2/lib/python2.7/site-packages/matplotlib/mpl-data/fonts/ttf/DejaVuSansMono.ttf
p83
sg21
g22
sbag1
(g8
g3
NtRp84
(dp85
g11
g17
sg13
VSTIXSizeTwoSym
p86
sg15
I700
sg16
g17
sg18
g17
sg19
V/home/philipp/anaconda2/lib/python2.7/site-packages/matplotlib/mpl-data/fonts/ttf/STIXSizTwoSymBol.ttf
p87
sg21
g22
sbag1
(g8
g3
NtRp88
(dp89
g11
g12
sg13
VSTIXGeneral
p90
sg15
I400
sg16
g17
sg18
g17
sg19
V/home/philipp/anaconda2/lib/python2.7/site-packages/matplotlib/mpl-data/fonts/ttf/STIXGeneralItalic.ttf
p91
sg21
g22
sbag1
(g8
g3
NtRp92
(dp93
g11
g17
sg13
VSTIXSizeFiveSym
p94
sg15
I400
sg16
g17
sg18
g17
sg19
V/home/philipp/anaconda2/lib/python2.7/site-packages/matplotlib/mpl-data/fonts/ttf/STIXSizFiveSymReg.ttf
p95
sg21
g22
sbag1
(g8
g3
NtRp96
(dp97
g11
g17
sg13
VSTIXSizeOneSym
p98
sg15
I700
sg16
g17
sg18
g17
sg19
V/home/philipp/anaconda2/lib/python2.7/site-packages/matplotlib/mpl-data/fonts/ttf/STIXSizOneSymBol.ttf
p99
sg21
g22
sbag1
(g8
g3
NtRp100
(dp101
g11
g17
sg13
VSTIXSizeThreeSym
p102
sg15
I400
sg16
g17
sg18
g17
sg19
V/home/philipp/anaconda2/lib/python2.7/site-packages/matplotlib/mpl-data/fonts/ttf/STIXSizThreeSymReg.ttf
p103
sg21
g22
sbag1
(g8
g3
NtRp104
(dp105
g11
g12
sg13
VSTIXNonUnicode
p106
sg15
I400
sg16
g17
sg18
g17
sg19
V/home/philipp/anaconda2/lib/python2.7/site-packages/matplotlib/mpl-data/fonts/ttf/STIXNonUniIta.ttf
p107
sg21
g22
sbag1
(g8
g3
NtRp108
(dp109
g11
g12
sg13
VSTIXNonUnicode
p110
sg15
I700
sg16
g17
sg18
g17
sg19
V/home/philipp/anaconda2/lib/python2.7/site-packages/matplotlib/mpl-data/fonts/ttf/STIXNonUniBolIta.ttf
p111
sg21
g22
sbag1
(g8
g3
NtRp112
(dp113
g11
g17
sg13
VSTIXGeneral
p114
sg15
I700
sg16
g17
sg18
g17
sg19
V/home/philipp/anaconda2/lib/python2.7/site-packages/matplotlib/mpl-data/fonts/ttf/STIXGeneralBol.ttf
p115
sg21
g22
sbag1
(g8
g3
NtRp116
(dp117
g11
g37
sg13
VDejaVu Sans Mono
p118
sg15
I700
sg16
g17
sg18
g17
sg19
V/home/philipp/anaconda2/lib/python2.7/site-packages/matplotlib/mpl-data/fonts/ttf/DejaVuSansMono-BoldOblique.ttf
p119
sg21
g22
sbag1
(g8
g3
NtRp120
(dp121
g11
g17
sg13
VSTIXNonUnicode
p122
sg15
I700
sg16
g17
sg18
g17
sg19
V/home/philipp/anaconda2/lib/python2.7/site-packages/matplotlib/mpl-data/fonts/ttf/STIXNonUniBol.ttf
p123
sg21
g22
sbag1
(g8
g3
NtRp124
(dp125
g11
g37
sg13
VDejaVu Sans Mono
p126
sg15
I400
sg16
g17
sg18
g17
sg19
V/home/philipp/anaconda2/lib/python2.7/site-packages/matplotlib/mpl-data/fonts/ttf/DejaVuSansMono-Oblique.ttf
p127
sg21
g22
sbag1
(g8
g3
NtRp128
(dp129
g11
g17
sg13
VSTIXSizeThreeSym
p130
sg15
I700
sg16
g17
sg18
g17
sg19
V/home/philipp/anaconda2/lib/python2.7/site-packages/matplotlib/mpl-data/fonts/ttf/STIXSizThreeSymBol.ttf
p131
sg21
g22
sbag1
(g8
g3
NtRp132
(dp133
g11
g17
sg13
Vcmr10
p134
sg15
I400
sg16
g17
sg18
g17
sg19
V/home/philipp/anaconda2/lib/python2.7/site-packages/matplotlib/mpl-data/fonts/ttf/cmr10.ttf
p135
sg21
g22
sbag1
(g8
g3
NtRp136
(dp137
g11
g17
sg13
VSTIXSizeTwoSym
p138
sg15
I400
sg16
g17
sg18
g17
sg19
V/home/philipp/anaconda2/lib/python2.7/site-packages/matplotlib/mpl-data/fonts/ttf/STIXSizTwoSymReg.ttf
p139
sg21
g22
sbag1
(g8
g3
NtRp140
(dp141
g11
g17
sg13
VDejaVu Serif Display
p142
sg15
I400
sg16
g17
sg18
g17
sg19
V/home/philipp/anaconda2/lib/python2.7/site-packages/matplotlib/mpl-data/fonts/ttf/DejaVuSerifDisplay.ttf
p143
sg21
g22
sbag1
(g8
g3
NtRp144
(dp145
g11
g17
sg13
VSTIXSizeFourSym
p146
sg15
I700
sg16
g17
sg18
g17
sg19
V/home/philipp/anaconda2/lib/python2.7/site-packages/matplotlib/mpl-data/fonts/ttf/STIXSizFourSymBol.ttf
p147
sg21
g22
sbag1
(g8
g3
NtRp148
(dp149
g11
g12
sg13
VDejaVu Serif
p150
sg15
I400
sg16
g17
sg18
g17
sg19
V/home/philipp/anaconda2/lib/python2.7/site-packages/matplotlib/mpl-data/fonts/ttf/DejaVuSerif-Italic.ttf
p151
sg21
g22
sbag1
(g8
g3
NtRp152
(dp153
g11
g37
sg13
VDejaVu Sans
p154
sg15
I400
sg16
g17
sg18
g17
sg19
V/home/philipp/anaconda2/lib/python2.7/site-packages/matplotlib/mpl-data/fonts/ttf/DejaVuSans-Oblique.ttf
p155
sg21
g22
sbag1
(g8
g3
NtRp156
(dp157
g11
g17
sg13
VSTIXSizeOneSym
p158
sg15
I400
sg16
g17
sg18
g17
sg19
V/home/philipp/anaconda2/lib/python2.7/site-packages/matplotlib/mpl-data/fonts/ttf/STIXSizOneSymReg.ttf
p159
sg21
g22
sbag1
(g8
g3
NtRp160
(dp161
g11
g17
sg13
VDejaVu Sans
p162
sg15
I400
sg16
g17
sg18
g17
sg19
V/home/philipp/anaconda2/lib/python2.7/site-packages/matplotlib/mpl-data/fonts/ttf/DejaVuSans.ttf
p163
sg21
g22
sbag1
(g8
g3
NtRp164
(dp165
g11
g17
sg13
VBitstream Vera Serif
p166
sg15
I700
sg16
g17
sg18
g17
sg19
V/home/philipp/anaconda2/lib/python2.7/site-packages/matplotlib/mpl-data/fonts/ttf/VeraSeBd.ttf
p167
sg21
g22
sbag1
(g8
g3
NtRp168
(dp169
g11
g17
sg13
VDejaVu Serif
p170
sg15
I700
sg16
g17
sg18
g17
sg19
V/home/philipp/anaconda2/lib/python2.7/site-packages/matplotlib/mpl-data/fonts/ttf/DejaVuSerif-Bold.ttf
p171
sg21
g22
sbag1
(g8
g3
NtRp172
(dp173
g11
g17
sg13
Vcmb10
p174
sg15
I400
sg16
g17
sg18
g17
sg19
V/home/philipp/anaconda2/lib/python2.7/site-packages/matplotlib/mpl-data/fonts/ttf/cmb10.ttf
p175
sg21
g22
sbag1
(g8
g3
NtRp176
(dp177
g11
g17
sg13
Vcmsy10
p178
sg15
I400
sg16
g17
sg18
g17
sg19
V/home/philipp/anaconda2/lib/python2.7/site-packages/matplotlib/mpl-data/fonts/ttf/cmsy10.ttf
p179
sg21
g22
sbag1
(g8
g3
NtRp180
(dp181
g11
g37
sg13
VBitstream Vera Sans Mono
p182
sg15
I400
sg16
g17
sg18
g17
sg19
V/home/philipp/anaconda2/lib/python2.7/site-packages/matplotlib/mpl-data/fonts/ttf/VeraMoIt.ttf
p183
sg21
g22
sbag1
(g8
g3
NtRp184
(dp185
g11
g17
sg13
VSTIXNonUnicode
p186
sg15
I400
sg16
g17
sg18
g17
sg19
V/home/philipp/anaconda2/lib/python2.7/site-packages/matplotlib/mpl-data/fonts/ttf/STIXNonUni.ttf
p187
sg21
g22
sbag1
(g8
g3
NtRp188
(dp189
g11
g17
sg13
VDejaVu Sans
p190
sg15
I700
sg16
g17
sg18
g17
sg19
V/home/philipp/anaconda2/lib/python2.7/site-packages/matplotlib/mpl-data/fonts/ttf/DejaVuSans-Bold.ttf
p191
sg21
g22
sbag1
(g8
g3
NtRp192
(dp193
g11
g17
sg13
VBitstream Vera Sans Mono
p194
sg15
I400
sg16
g17
sg18
g17
sg19
V/home/philipp/anaconda2/lib/python2.7/site-packages/matplotlib/mpl-data/fonts/ttf/VeraMono.ttf
p195
sg21
g22
sbag1
(g8
g3
NtRp196
(dp197
g11
g17
sg13
VBitstream Vera Serif
p198
sg15
I400
sg16
g17
sg18
g17
sg19
V/home/philipp/anaconda2/lib/python2.7/site-packages/matplotlib/mpl-data/fonts/ttf/VeraSe.ttf
p199
sg21
g22
sbag1
(g8
g3
NtRp200
(dp201
g11
g17
sg13
Vcmmi10
p202
sg15
I400
sg16
g17
sg18
g17
sg19
V/home/philipp/anaconda2/lib/python2.7/site-packages/matplotlib/mpl-data/fonts/ttf/cmmi10.ttf
p203
sg21
g22
sbag1
(g8
g3
NtRp204
(dp205
g11
g17
sg13
VBitstream Vera Sans
p206
sg15
I400
sg16
g17
sg18
g17
sg19
V/home/philipp/anaconda2/lib/python2.7/site-packages/matplotlib/mpl-data/fonts/ttf/Vera.ttf
p207
sg21
g22
sbag1
(g8
g3
NtRp208
(dp209
g11
g12
sg13
VDejaVu Serif
p210
sg15
I700
sg16
g17
sg18
g17
sg19
V/home/philipp/anaconda2/lib/python2.7/site-packages/matplotlib/mpl-data/fonts/ttf/DejaVuSerif-BoldItalic.ttf
p211
sg21
g22
sbag1
(g8
g3
NtRp212
(dp213
g11
g17
sg13
VLato
p214
sg15
I400
sg16
g17
sg18
g17
sg19
V/usr/share/fonts/truetype/lato/Lato-Hairline.ttf
p215
sg21
g22
sbag1
(g8
g3
NtRp216
(dp217
g11
g17
sg13
VSTIXIntegralsUp
p218
sg15
I400
sg16
g17
sg18
g17
sg19
V/usr/share/fonts/opentype/stix/STIXIntegralsUp-Regular.otf
p219
sg21
g22
sbag1
(g8
g3
NtRp220
(dp221
g11
g17
sg13
VKacstTitle
p222
sg15
I400
sg16
g17
sg18
g17
sg19
V/usr/share/fonts/truetype/kacst/KacstTitle.ttf
p223
sg21
g22
sbag1
(g8
g3
NtRp224
(dp225
g11
g17
sg13
VUbuntu
p226
sg15
I500
sg16
g17
sg18
g17
sg19
V/usr/share/fonts/truetype/ubuntu-font-family/Ubuntu-M.ttf
p227
sg21
g22
sbag1
(g8
g3
NtRp228
(dp229
g11
g12
sg13
VLaksaman
p230
sg15
I700
sg16
g17
sg18
g17
sg19
V/usr/share/fonts/truetype/tlwg/Laksaman-BoldItalic.ttf
p231
sg21
g22
sbag1
(g8
g3
NtRp232
(dp233
g11
g17
sg13
VUmpush
p234
sg15
I400
sg16
g17
sg18
g17
sg19
V/usr/share/fonts/truetype/tlwg/Umpush.ttf
p235
sg21
g22
sbag1
(g8
g3
NtRp236
(dp237
g11
g37
sg13
VGaruda
p238
sg15
I700
sg16
g17
sg18
g17
sg19
V/usr/share/fonts/truetype/tlwg/Garuda-BoldOblique.ttf
p239
sg21
g22
sbag1
(g8
g3
NtRp240
(dp241
g11
g17
sg13
VNoto Sans Lao UI
p242
sg15
I700
sg16
g17
sg18
g17
sg19
V/usr/share/fonts/truetype/noto/NotoSansLaoUI-Bold.ttf
p243
sg21
g22
sbag1
(g8
g3
NtRp244
(dp245
g11
g17
sg13
VGaruda
p246
sg15
I700
sg16
g17
sg18
g17
sg19
V/usr/share/fonts/truetype/tlwg/Garuda-Bold.ttf
p247
sg21
g22
sbag1
(g8
g3
NtRp248
(dp249
g11
g17
sg13
VLato
p250
sg15
I400
sg16
g17
sg18
g17
sg19
V/usr/share/fonts/truetype/lato/Lato-Thin.ttf
p251
sg21
g22
sbag1
(g8
g3
NtRp252
(dp253
g11
g17
sg13
VSTIXIntegralsUpD
p254
sg15
I400
sg16
g17
sg18
g17
sg19
V/usr/share/fonts/opentype/stix/STIXIntegralsUpD-Regular.otf
p255
sg21
g22
sbag1
(g8
g3
NtRp256
(dp257
g11
g17
sg13
VNoto Sans Tamil UI
p258
sg15
I700
sg16
g17
sg18
g17
sg19
V/usr/share/fonts/truetype/noto/NotoSansTamilUI-Bold.ttf
p259
sg21
g22
sbag1
(g8
g3
NtRp260
(dp261
g11
g12
sg13
VDejaVu Serif
p262
sg15
I700
sg16
Vcondensed
p263
sg18
g17
sg19
V/usr/share/fonts/truetype/dejavu/DejaVuSerifCondensed-BoldItalic.ttf
p264
sg21
g22
sbag1
(g8
g3
NtRp265
(dp266
g11
g37
sg13
VTlwg Typist
p267
sg15
I700
sg16
g17
sg18
g17
sg19
V/usr/share/fonts/truetype/tlwg/TlwgTypist-BoldOblique.ttf
p268
sg21
g22
sbag1
(g8
g3
NtRp269
(dp270
g11
g17
sg13
VNoto Serif Georgian
p271
sg15
I400
sg16
g17
sg18
g17
sg19
V/usr/share/fonts/truetype/noto/NotoSerifGeorgian-Regular.ttf
p272
sg21
g22
sbag1
(g8
g3
NtRp273
(dp274
g11
g17
sg13
VNoto Sans Thai UI
p275
sg15
I400
sg16
g17
sg18
g17
sg19
V/usr/share/fonts/truetype/noto/NotoSansThaiUI-Regular.ttf
p276
sg21
g22
sbag1
(g8
g3
NtRp277
(dp278
g11
g17
sg13
VNoto Serif Devanagari
p279
sg15
I400
sg16
g17
sg18
g17
sg19
V/usr/share/fonts/truetype/noto/NotoSerifDevanagari-Regular.ttf
p280
sg21
g22
sbag1
(g8
g3
NtRp281
(dp282
g11
g17
sg13
VKacstScreen
p283
sg15
I400
sg16
g17
sg18
g17
sg19
V/usr/share/fonts/truetype/kacst/KacstScreen.ttf
p284
sg21
g22
sbag1
(g8
g3
NtRp285
(dp286
g11
g17
sg13
VNoto Sans Telugu
p287
sg15
I400
sg16
g17
sg18
g17
sg19
V/usr/share/fonts/truetype/noto/NotoSansTelugu-Regular.ttf
p288
sg21
g22
sbag1
(g8
g3
NtRp289
(dp290
g11
g17
sg13
VSTIXIntegralsUpSm
p291
sg15
I400
sg16
g17
sg18
g17
sg19
V/usr/share/fonts/opentype/stix/STIXIntegralsUpSm-Regular.otf
p292
sg21
g22
sbag1
(g8
g3
NtRp293
(dp294
g11
g37
sg13
VNorasi
p295
sg15
I400
sg16
g17
sg18
g17
sg19
V/usr/share/fonts/truetype/tlwg/Norasi-Oblique.ttf
p296
sg21
g22
sbag1
(g8
g3
NtRp297
(dp298
g11
g17
sg13
VNoto Naskh Arabic UI
p299
sg15
I700
sg16
g17
sg18
g17
sg19
V/usr/share/fonts/truetype/noto/NotoNaskhArabicUI-Bold.ttf
p300
sg21
g22
sbag1
(g8
g3
NtRp301
(dp302
g11
g17
sg13
VUmpush
p303
sg15
I200
sg16
g17
sg18
g17
sg19
V/usr/share/fonts/truetype/tlwg/Umpush-Light.ttf
p304
sg21
g22
sbag1
(g8
g3
NtRp305
(dp306
g11
g17
sg13
VNoto Sans Gujarati UI
p307
sg15
I700
sg16
g17
sg18
g17
sg19
V/usr/share/fonts/truetype/noto/NotoSansGujaratiUI-Bold.ttf
p308
sg21
g22
sbag1
(g8
g3
NtRp309
(dp310
g11
g17
sg13
VNoto Serif Thai
p311
sg15
I400
sg16
g17
sg18
g17
sg19
V/usr/share/fonts/truetype/noto/NotoSerifThai-Regular.ttf
p312
sg21
g22
sbag1
(g8
g3
NtRp313
(dp314
g11
g17
sg13
VKacstPoster
p315
sg15
I400
sg16
g17
sg18
g17
sg19
V/usr/share/fonts/truetype/kacst/KacstPoster.ttf
p316
sg21
g22
sbag1
(g8
g3
NtRp317
(dp318
g11
g17
sg13
VNoto Serif Bengali
p319
sg15
I400
sg16
g17
sg18
g17
sg19
V/usr/share/fonts/truetype/noto/NotoSerifBengali-Regular.ttf
p320
sg21
g22
sbag1
(g8
g3
NtRp321
(dp322
g11
g17
sg13
VSymbola
p323
sg15
I400
sg16
g17
sg18
g17
sg19
V/usr/share/fonts/truetype/ancient-scripts/Symbola_hint.ttf
p324
sg21
g22
sbag1
(g8
g3
NtRp325
(dp326
g11
g17
sg13
VLoma
p327
sg15
I700
sg16
g17
sg18
g17
sg19
V/usr/share/fonts/truetype/tlwg/Loma-Bold.ttf
p328
sg21
g22
sbag1
(g8
g3
NtRp329
(dp330
g11
g12
sg13
VKinnari
p331
sg15
I400
sg16
g17
sg18
g17
sg19
V/usr/share/fonts/truetype/tlwg/Kinnari-Italic.ttf
p332
sg21
g22
sbag1
(g8
g3
NtRp333
(dp334
g11
g17
sg13
VNoto Kufi Arabic
p335
sg15
I700
sg16
g17
sg18
g17
sg19
V/usr/share/fonts/truetype/noto/NotoKufiArabic-Bold.ttf
p336
sg21
g22
sbag1
(g8
g3
NtRp337
(dp338
g11
g17
sg13
VNoto Serif Gujarati
p339
sg15
I400
sg16
g17
sg18
g17
sg19
V/usr/share/fonts/truetype/noto/NotoSerifGujarati-Regular.ttf
p340
sg21
g22
sbag1
(g8
g3
NtRp341
(dp342
g11
g17
sg13
VNoto Serif Thai
p343
sg15
I700
sg16
g17
sg18
g17
sg19
V/usr/share/fonts/truetype/noto/NotoSerifThai-Bold.ttf
p344
sg21
g22
sbag1
(g8
g3
NtRp345
(dp346
g11
g37
sg13
VUmpush
p347
sg15
I200
sg16
g17
sg18
g17
sg19
V/usr/share/fonts/truetype/tlwg/Umpush-LightOblique.ttf
p348
sg21
g22
sbag1
(g8
g3
NtRp349
(dp350
g11
g17
sg13
VFreeSerif
p351
sg15
I700
sg16
g17
sg18
g17
sg19
V/usr/share/fonts/truetype/freefont/FreeSerifBold.ttf
p352
sg21
g22
sbag1
(g8
g3
NtRp353
(dp354
g11
g37
sg13
VFreeMono
p355
sg15
I700
sg16
g17
sg18
g17
sg19
V/usr/share/fonts/truetype/freefont/FreeMonoBoldOblique.ttf
p356
sg21
g22
sbag1
(g8
g3
NtRp357
(dp358
g11
g17
sg13
VTlwg Typo
p359
sg15
I400
sg16
g17
sg18
g17
sg19
V/usr/share/fonts/truetype/tlwg/TlwgTypo.ttf
p360
sg21
g22
sbag1
(g8
g3
NtRp361
(dp362
g11
g17
sg13
VNoto Sans UI
p363
sg15
I700
sg16
g17
sg18
g17
sg19
V/usr/share/fonts/truetype/noto/NotoSansUI-Bold.ttf
p364
sg21
g22
sbag1
(g8
g3
NtRp365
(dp366
g11
g12
sg13
VLiberation Serif
p367
sg15
I400
sg16
g17
sg18
g17
sg19
V/usr/share/fonts/truetype/liberation/LiberationSerif-Italic.ttf
p368
sg21
g22
sbag1
(g8
g3
NtRp369
(dp370
g11
g17
sg13
VLKLUG
p371
sg15
I400
sg16
g17
sg18
g17
sg19
V/usr/share/fonts/truetype/sinhala/lklug.ttf
p372
sg21
g22
sbag1
(g8
g3
NtRp373
(dp374
g11
g12
sg13
VLato
p375
sg15
I400
sg16
g17
sg18
g17
sg19
V/usr/share/fonts/truetype/lato/Lato-Italic.ttf
p376
sg21
g22
sbag1
(g8
g3
NtRp377
(dp378
g11
g17
sg13
VNoto Sans Gujarati
p379
sg15
I400
sg16
g17
sg18
g17
sg19
V/usr/share/fonts/truetype/noto/NotoSansGujarati-Regular.ttf
p380
sg21
g22
sbag1
(g8
g3
NtRp381
(dp382
g11
g17
sg13
VNoto Naskh Arabic
p383
sg15
I700
sg16
g17
sg18
g17
sg19
V/usr/share/fonts/truetype/noto/NotoNaskhArabic-Bold.ttf
p384
sg21
g22
sbag1
(g8
g3
NtRp385
(dp386
g11
g37
sg13
VFreeSans
p387
sg15
I400
sg16
g17
sg18
g17
sg19
V/usr/share/fonts/truetype/freefont/FreeSansOblique.ttf
p388
sg21
g22
sbag1
(g8
g3
NtRp389
(dp390
g11
g17
sg13
VNoto Mono
p391
sg15
I400
sg16
g17
sg18
g17
sg19
V/usr/share/fonts/truetype/noto/NotoMono-Regular.ttf
p392
sg21
g22
sbag1
(g8
g3
NtRp393
(dp394
g11
g12
sg13
VSTIXGeneral
p395
sg15
I400
sg16
g17
sg18
g17
sg19
V/usr/share/fonts/opentype/stix/STIXGeneral-Italic.otf
p396
sg21
g22
sbag1
(g8
g3
NtRp397
(dp398
g11
g12
sg13
VLato
p399
sg15
I500
sg16
g17
sg18
g17
sg19
V/usr/share/fonts/truetype/lato/Lato-MediumItalic.ttf
p400
sg21
g22
sbag1
(g8
g3
NtRp401
(dp402
g11
g17
sg13
VNoto Sans Thai UI
p403
sg15
I700
sg16
g17
sg18
g17
sg19
V/usr/share/fonts/truetype/noto/NotoSansThaiUI-Bold.ttf
p404
sg21
g22
sbag1
(g8
g3
NtRp405
(dp406
g11
g17
sg13
VLiberation Sans
p407
sg15
I700
sg16
g17
sg18
g17
sg19
V/usr/share/fonts/truetype/liberation/LiberationSans-Bold.ttf
p408
sg21
g22
sbag1
(g8
g3
NtRp409
(dp410
g11
g37
sg13
VTlwg Typo
p411
sg15
I700
sg16
g17
sg18
g17
sg19
V/usr/share/fonts/truetype/tlwg/TlwgTypo-BoldOblique.ttf
p412
sg21
g22
sbag1
(g8
g3
NtRp413
(dp414
g11
g17
sg13
VLaksaman
p415
sg15
I400
sg16
g17
sg18
g17
sg19
V/usr/share/fonts/truetype/tlwg/Laksaman.ttf
p416
sg21
g22
sbag1
(g8
g3
NtRp417
(dp418
g11
g17
sg13
VDejaVu Serif
p419
sg15
I700
sg16
g263
sg18
g17
sg19
V/usr/share/fonts/truetype/dejavu/DejaVuSerifCondensed-Bold.ttf
p420
sg21
g22
sbag1
(g8
g3
NtRp421
(dp422
g11
g17
sg13
VLiberation Mono
p423
sg15
I400
sg16
g17
sg18
g17
sg19
V/usr/share/fonts/truetype/liberation/LiberationMono-Regular.ttf
p424
sg21
g22
sbag1
(g8
g3
NtRp425
(dp426
g11
g17
sg13
VNoto Sans Khmer
p427
sg15
I700
sg16
g17
sg18
g17
sg19
V/usr/share/fonts/truetype/noto/NotoSansKhmer-Bold.ttf
p428
sg21
g22
sbag1
(g8
g3
NtRp429
(dp430
g11
g12
sg13
VNoto Sans
p431
sg15
I400
sg16
g17
sg18
g17
sg19
V/usr/share/fonts/truetype/noto/NotoSans-Italic.ttf
p432
sg21
g22
sbag1
(g8
g3
NtRp433
(dp434
g11
g17
sg13
VSTIXIntegralsUpD
p435
sg15
I700
sg16
g17
sg18
g17
sg19
V/usr/share/fonts/opentype/stix/STIXIntegralsUpD-Bold.otf
p436
sg21
g22
sbag1
(g8
g3
NtRp437
(dp438
g11
g17
sg13
VLato
p439
sg15
I400
sg16
g17
sg18
g17
sg19
V/usr/share/fonts/truetype/lato/Lato-Regular.ttf
p440
sg21
g22
sbag1
(g8
g3
NtRp441
(dp442
g11
g17
sg13
VSTIXVariants
p443
sg15
I400
sg16
g17
sg18
g17
sg19
V/usr/share/fonts/opentype/stix/STIXVariants-Regular.otf
p444
sg21
g22
sbag1
(g8
g3
NtRp445
(dp446
g11
g17
sg13
VUbuntu
p447
sg15
I400
sg16
g17
sg18
g17
sg19
V/usr/share/fonts/truetype/ubuntu-font-family/Ubuntu-R.ttf
p448
sg21
g22
sbag1
(g8
g3
NtRp449
(dp450
g11
g17
sg13
VNoto Sans Tamil
p451
sg15
I700
sg16
g17
sg18
g17
sg19
V/usr/share/fonts/truetype/noto/NotoSansTamil-Bold.ttf
p452
sg21
g22
sbag1
(g8
g3
NtRp453
(dp454
g11
g17
sg13
VNoto Sans Georgian
p455
sg15
I400
sg16
g17
sg18
g17
sg19
V/usr/share/fonts/truetype/noto/NotoSansGeorgian-Regular.ttf
p456
sg21
g22
sbag1
(g8
g3
NtRp457
(dp458
g11
g37
sg13
VDejaVu Sans
p459
sg15
I400
sg16
g263
sg18
g17
sg19
V/usr/share/fonts/truetype/dejavu/DejaVuSansCondensed-Oblique.ttf
p460
sg21
g22
sbag1
(g8
g3
NtRp461
(dp462
g11
g17
sg13
VLato
p463
sg15
I500
sg16
g17
sg18
g17
sg19
V/usr/share/fonts/truetype/lato/Lato-Medium.ttf
p464
sg21
g22
sbag1
(g8
g3
NtRp465
(dp466
g11
g17
sg13
VNanumBarunGothic
p467
sg15
I700
sg16
g17
sg18
g17
sg19
V/usr/share/fonts/truetype/nanum/NanumBarunGothicBold.ttf
p468
sg21
g22
sbag1
(g8
g3
NtRp469
(dp470
g11
g17
sg13
VTlwg Typist
p471
sg15
I400
sg16
g17
sg18
g17
sg19
V/usr/share/fonts/truetype/tlwg/TlwgTypist.ttf
p472
sg21
g22
sbag1
(g8
g3
NtRp473
(dp474
g11
g17
sg13
VNanumGothic
p475
sg15
I400
sg16
g17
sg18
g17
sg19
V/usr/share/fonts/truetype/nanum/NanumGothic.ttf
p476
sg21
g22
sbag1
(g8
g3
NtRp477
(dp478
g11
g17
sg13
VDejaVu Math TeX Gyre
p479
sg15
I400
sg16
g17
sg18
g17
sg19
V/usr/share/fonts/truetype/dejavu/DejaVuMathTeXGyre.ttf
p480
sg21
g22
sbag1
(g8
g3
NtRp481
(dp482
g11
g17
sg13
VNoto Serif Lao
p483
sg15
I400
sg16
g17
sg18
g17
sg19
V/usr/share/fonts/truetype/noto/NotoSerifLao-Regular.ttf
p484
sg21
g22
sbag1
(g8
g3
NtRp485
(dp486
g11
g17
sg13
VGaruda
p487
sg15
I400
sg16
g17
sg18
g17
sg19
V/usr/share/fonts/truetype/tlwg/Garuda.ttf
p488
sg21
g22
sbag1
(g8
g3
NtRp489
(dp490
g11
g17
sg13
Vmry_KacstQurn
p491
sg15
I400
sg16
g17
sg18
g17
sg19
V/usr/share/fonts/truetype/kacst/mry_KacstQurn.ttf
p492
sg21
g22
sbag1
(g8
g3
NtRp493
(dp494
g11
g17
sg13
VNoto Sans
p495
sg15
I700
sg16
g17
sg18
g17
sg19
V/usr/share/fonts/truetype/noto/NotoSans-Bold.ttf
p496
sg21
g22
sbag1
(g8
g3
NtRp497
(dp498
g11
g17
sg13
VNoto Sans Oriya
p499
sg15
I700
sg16
g17
sg18
g17
sg19
V/usr/share/fonts/truetype/noto/NotoSansOriya-Bold.ttf
p500
sg21
g22
sbag1
(g8
g3
NtRp501
(dp502
g11
g17
sg13
VNoto Serif
p503
sg15
I400
sg16
g17
sg18
g17
sg19
V/usr/share/fonts/truetype/noto/NotoSerif-Regular.ttf
p504
sg21
g22
sbag1
(g8
g3
NtRp505
(dp506
g11
g17
sg13
VNoto Serif Kannada
p507
sg15
I400
sg16
g17
sg18
g17
sg19
V/usr/share/fonts/truetype/noto/NotoSerifKannada-Regular.ttf
p508
sg21
g22
sbag1
(g8
g3
NtRp509
(dp510
g11
g12
sg13
VLiberation Mono
p511
sg15
I400
sg16
g17
sg18
g17
sg19
V/usr/share/fonts/truetype/liberation/LiberationMono-Italic.ttf
p512
sg21
g22
sbag1
(g8
g3
NtRp513
(dp514
g11
g17
sg13
VDejaVu Sans
p515
sg15
I700
sg16
g263
sg18
g17
sg19
V/usr/share/fonts/truetype/dejavu/DejaVuSansCondensed-Bold.ttf
p516
sg21
g22
sbag1
(g8
g3
NtRp517
(dp518
g11
g17
sg13
VTibetan Machine Uni
p519
sg15
I400
sg16
g17
sg18
g17
sg19
V/usr/share/fonts/truetype/tibetan-machine/TibetanMachineUni.ttf
p520
sg21
g22
sbag1
(g8
g3
NtRp521
(dp522
g11
g17
sg13
VNoto Sans Myanmar
p523
sg15
I400
sg16
g17
sg18
g17
sg19
V/usr/share/fonts/truetype/noto/NotoSansMyanmar-Regular.ttf
p524
sg21
g22
sbag1
(g8
g3
NtRp525
(dp526
g11
g12
sg13
VLiberation Serif
p527
sg15
I700
sg16
g17
sg18
g17
sg19
V/usr/share/fonts/truetype/liberation/LiberationSerif-BoldItalic.ttf
p528
sg21
g22
sbag1
(g8
g3
NtRp529
(dp530
g11
g17
sg13
VLohit Punjabi
p531
sg15
I400
sg16
g17
sg18
g17
sg19
V/usr/share/fonts/truetype/lohit-punjabi/Lohit-Punjabi.ttf
p532
sg21
g22
sbag1
(g8
g3
NtRp533
(dp534
g11
g37
sg13
VKinnari
p535
sg15
I400
sg16
g17
sg18
g17
sg19
V/usr/share/fonts/truetype/tlwg/Kinnari-Oblique.ttf
p536
sg21
g22
sbag1
(g8
g3
NtRp537
(dp538
g11
g12
sg13
VNoto Sans UI
p539
sg15
I400
sg16
g17
sg18
g17
sg19
V/usr/share/fonts/truetype/noto/NotoSansUI-Italic.ttf
p540
sg21
g22
sbag1
(g8
g3
NtRp541
(dp542
g11
g17
sg13
VLiberation Serif
p543
sg15
I700
sg16
g17
sg18
g17
sg19
V/usr/share/fonts/truetype/liberation/LiberationSerif-Bold.ttf
p544
sg21
g22
sbag1
(g8
g3
NtRp545
(dp546
g11
g12
sg13
VLiberation Sans
p547
sg15
I400
sg16
g17
sg18
g17
sg19
V/usr/share/fonts/truetype/liberation/LiberationSans-Italic.ttf
p548
sg21
g22
sbag1
(g8
g3
NtRp549
(dp550
g11
g12
sg13
VSTIXGeneral
p551
sg15
I700
sg16
g17
sg18
g17
sg19
V/usr/share/fonts/opentype/stix/STIXGeneral-BoldItalic.otf
p552
sg21
g22
sbag1
(g8
g3
NtRp553
(dp554
g11
g17
sg13
VNoto Sans Myanmar UI
p555
sg15
I700
sg16
g17
sg18
g17
sg19
V/usr/share/fonts/truetype/noto/NotoSansMyanmarUI-Bold.ttf
p556
sg21
g22
sbag1
(g8
g3
NtRp557
(dp558
g11
g17
sg13
VNanumMyeongjo
p559
sg15
I700
sg16
g17
sg18
g17
sg19
V/usr/share/fonts/truetype/nanum/NanumMyeongjoBold.ttf
p560
sg21
g22
sbag1
(g8
g3
NtRp561
(dp562
g11
g17
sg13
VWaree
p563
sg15
I700
sg16
g17
sg18
g17
sg19
V/usr/share/fonts/truetype/tlwg/Waree-Bold.ttf
p564
sg21
g22
sbag1
(g8
g3
NtRp565
(dp566
g11
g17
sg13
VSTIXIntegralsUp
p567
sg15
I700
sg16
g17
sg18
g17
sg19
V/usr/share/fonts/opentype/stix/STIXIntegralsUp-Bold.otf
p568
sg21
g22
sbag1
(g8
g3
NtRp569
(dp570
g11
g12
sg13
VLato
p571
sg15
I700
sg16
g17
sg18
g17
sg19
V/usr/share/fonts/truetype/lato/Lato-BoldItalic.ttf
p572
sg21
g22
sbag1
(g8
g3
NtRp573
(dp574
g11
g17
sg13
VPhetsarath OT
p575
sg15
I400
sg16
g17
sg18
g17
sg19
V/usr/share/fonts/truetype/lao/Phetsarath_OT.ttf
p576
sg21
g22
sbag1
(g8
g3
NtRp577
(dp578
g11
g17
sg13
VSTIXSizeTwoSym
p579
sg15
I400
sg16
g17
sg18
g17
sg19
V/usr/share/fonts/opentype/stix/STIXSizeTwoSym-Regular.otf
p580
sg21
g22
sbag1
(g8
g3
NtRp581
(dp582
g11
g17
sg13
VPadauk Book
p583
sg15
I400
sg16
g17
sg18
g17
sg19
V/usr/share/fonts/truetype/padauk/Padauk-book.ttf
p584
sg21
g22
sbag1
(g8
g3
NtRp585
(dp586
g11
g17
sg13
VNoto Serif Kannada
p587
sg15
I700
sg16
g17
sg18
g17
sg19
V/usr/share/fonts/truetype/noto/NotoSerifKannada-Bold.ttf
p588
sg21
g22
sbag1
(g8
g3
NtRp589
(dp590
g11
g17
sg13
VKacstDigital
p591
sg15
I400
sg16
g17
sg18
g17
sg19
V/usr/share/fonts/truetype/kacst/KacstDigital.ttf
p592
sg21
g22
sbag1
(g8
g3
NtRp593
(dp594
g11
g17
sg13
VNoto Serif Tamil
p595
sg15
I400
sg16
g17
sg18
g17
sg19
V/usr/share/fonts/truetype/noto/NotoSerifTamil-Regular.ttf
p596
sg21
g22
sbag1
(g8
g3
NtRp597
(dp598
g11
g17
sg13
VSTIXNonUnicode
p599
sg15
I400
sg16
g17
sg18
g17
sg19
V/usr/share/fonts/opentype/stix/STIXNonUnicode-Regular.otf
p600
sg21
g22
sbag1
(g8
g3
NtRp601
(dp602
g11
g17
sg13
VNoto Sans Hebrew
p603
sg15
I700
sg16
g17
sg18
g17
sg19
V/usr/share/fonts/truetype/noto/NotoSansHebrew-Bold.ttf
p604
sg21
g22
sbag1
(g8
g3
NtRp605
(dp606
g11
g17
sg13
VLiberation Sans
p607
sg15
I400
sg16
g17
sg18
g17
sg19
V/usr/share/fonts/truetype/liberation/LiberationSans-Regular.ttf
p608
sg21
g22
sbag1
(g8
g3
NtRp609
(dp610
g11
g17
sg13
VNoto Sans Bengali
p611
sg15
I400
sg16
g17
sg18
g17
sg19
V/usr/share/fonts/truetype/noto/NotoSansBengali-Regular.ttf
p612
sg21
g22
sbag1
(g8
g3
NtRp613
(dp614
g11
g17
sg13
VKacstOffice
p615
sg15
I400
sg16
g17
sg18
g17
sg19
V/usr/share/fonts/truetype/kacst/KacstOffice.ttf
p616
sg21
g22
sbag1
(g8
g3
NtRp617
(dp618
g11
g17
sg13
VNoto Sans Telugu UI
p619
sg15
I700
sg16
g17
sg18
g17
sg19
V/usr/share/fonts/truetype/noto/NotoSansTeluguUI-Bold.ttf
p620
sg21
g22
sbag1
(g8
g3
NtRp621
(dp622
g11
g17
sg13
VNoto Sans Hebrew
p623
sg15
I400
sg16
g17
sg18
g17
sg19
V/usr/share/fonts/truetype/noto/NotoSansHebrew-Regular.ttf
p624
sg21
g22
sbag1
(g8
g3
NtRp625
(dp626
g11
g17
sg13
VNoto Serif Lao
p627
sg15
I700
sg16
g17
sg18
g17
sg19
V/usr/share/fonts/truetype/noto/NotoSerifLao-Bold.ttf
p628
sg21
g22
sbag1
(g8
g3
NtRp629
(dp630
g11
g12
sg13
VNoto Sans
p631
sg15
I700
sg16
g17
sg18
g17
sg19
V/usr/share/fonts/truetype/noto/NotoSans-BoldItalic.ttf
p632
sg21
g22
sbag1
(g8
g3
NtRp633
(dp634
g11
g17
sg13
VNoto Kufi Arabic
p635
sg15
I400
sg16
g17
sg18
g17
sg19
V/usr/share/fonts/truetype/noto/NotoKufiArabic-Regular.ttf
p636
sg21
g22
sbag1
(g8
g3
NtRp637
(dp638
g11
g17
sg13
VSTIXSizeFiveSym
p639
sg15
I400
sg16
g17
sg18
g17
sg19
V/usr/share/fonts/opentype/stix/STIXSizeFiveSym-Regular.otf
p640
sg21
g22
sbag1
(g8
g3
NtRp641
(dp642
g11
g12
sg13
VNoto Sans UI
p643
sg15
I700
sg16
g17
sg18
g17
sg19
V/usr/share/fonts/truetype/noto/NotoSansUI-BoldItalic.ttf
p644
sg21
g22
sbag1
(g8
g3
NtRp645
(dp646
g11
g17
sg13
VUbuntu Mono
p647
sg15
I400
sg16
g17
sg18
g17
sg19
V/usr/share/fonts/truetype/ubuntu-font-family/UbuntuMono-R.ttf
p648
sg21
g22
sbag1
(g8
g3
NtRp649
(dp650
g11
g17
sg13
VNoto Sans Malayalam UI
p651
sg15
I700
sg16
g17
sg18
g17
sg19
V/usr/share/fonts/truetype/noto/NotoSansMalayalamUI-Bold.ttf
p652
sg21
g22
sbag1
(g8
g3
NtRp653
(dp654
g11
g37
sg13
VLoma
p655
sg15
I400
sg16
g17
sg18
g17
sg19
V/usr/share/fonts/truetype/tlwg/Loma-Oblique.ttf
p656
sg21
g22
sbag1
(g8
g3
NtRp657
(dp658
g11
g17
sg13
VNorasi
p659
sg15
I700
sg16
g17
sg18
g17
sg19
V/usr/share/fonts/truetype/tlwg/Norasi-Bold.ttf
p660
sg21
g22
sbag1
(g8
g3
NtRp661
(dp662
g11
g12
sg13
VNorasi
p663
sg15
I700
sg16
g17
sg18
g17
sg19
V/usr/share/fonts/truetype/tlwg/Norasi-BoldItalic.ttf
p664
sg21
g22
sbag1
(g8
g3
NtRp665
(dp666
g11
g17
sg13
VLaksaman
p667
sg15
I700
sg16
g17
sg18
g17
sg19
V/usr/share/fonts/truetype/tlwg/Laksaman-Bold.ttf
p668
sg21
g22
sbag1
(g8
g3
NtRp669
(dp670
g11
g17
sg13
VNoto Sans Myanmar
p671
sg15
I700
sg16
g17
sg18
g17
sg19
V/usr/share/fonts/truetype/noto/NotoSansMyanmar-Bold.ttf
p672
sg21
g22
sbag1
(g8
g3
NtRp673
(dp674
g11
g17
sg13
VUmpush
p675
sg15
I700
sg16
g17
sg18
g17
sg19
V/usr/share/fonts/truetype/tlwg/Umpush-Bold.ttf
p676
sg21
g22
sbag1
(g8
g3
NtRp677
(dp678
g11
g17
sg13
VNoto Sans Thai
p679
sg15
I400
sg16
g17
sg18
g17
sg19
V/usr/share/fonts/truetype/noto/NotoSansThai-Regular.ttf
p680
sg21
g22
sbag1
(g8
g3
NtRp681
(dp682
g11
g12
sg13
VLiberation Sans
p683
sg15
I700
sg16
g17
sg18
g17
sg19
V/usr/share/fonts/truetype/liberation/LiberationSans-BoldItalic.ttf
p684
sg21
g22
sbag1
(g8
g3
NtRp685
(dp686
g11
g17
sg13
VLato
p687
sg15
I200
sg16
g17
sg18
g17
sg19
V/usr/share/fonts/truetype/lato/Lato-Light.ttf
p688
sg21
g22
sbag1
(g8
g3
NtRp689
(dp690
g11
g37
sg13
VKinnari
p691
sg15
I700
sg16
g17
sg18
g17
sg19
V/usr/share/fonts/truetype/tlwg/Kinnari-BoldOblique.ttf
p692
sg21
g22
sbag1
(g8
g3
NtRp693
(dp694
g11
g17
sg13
VNoto Sans Ethiopic
p695
sg15
I400
sg16
g17
sg18
g17
sg19
V/usr/share/fonts/truetype/noto/NotoSansEthiopic-Regular.ttf
p696
sg21
g22
sbag1
(g8
g3
NtRp697
(dp698
g11
g17
sg13
VNoto Sans Khmer UI
p699
sg15
I700
sg16
g17
sg18
g17
sg19
V/usr/share/fonts/truetype/noto/NotoSansKhmerUI-Bold.ttf
p700
sg21
g22
sbag1
(g8
g3
NtRp701
(dp702
g11
g17
sg13
VNoto Sans Gurmukhi UI
p703
sg15
I400
sg16
g17
sg18
g17
sg19
V/usr/share/fonts/truetype/noto/NotoSansGurmukhiUI-Regular.ttf
p704
sg21
g22
sbag1
(g8
g3
NtRp705
(dp706
g11
g17
sg13
VNoto Sans Armenian
p707
sg15
I700
sg16
g17
sg18
g17
sg19
V/usr/share/fonts/truetype/noto/NotoSansArmenian-Bold.ttf
p708
sg21
g22
sbag1
(g8
g3
NtRp709
(dp710
g11
g17
sg13
VNoto Sans Lao UI
p711
sg15
I400
sg16
g17
sg18
g17
sg19
V/usr/share/fonts/truetype/noto/NotoSansLaoUI-Regular.ttf
p712
sg21
g22
sbag1
(g8
g3
NtRp713
(dp714
g11
g17
sg13
VLato
p715
sg15
I800
sg16
g17
sg18
g17
sg19
V/usr/share/fonts/truetype/lato/Lato-Heavy.ttf
p716
sg21
g22
sbag1
(g8
g3
NtRp717
(dp718
g11
g12
sg13
VKinnari
p719
sg15
I700
sg16
g17
sg18
g17
sg19
V/usr/share/fonts/truetype/tlwg/Kinnari-BoldItalic.ttf
p720
sg21
g22
sbag1
(g8
g3
NtRp721
(dp722
g11
g17
sg13
VNoto Serif Armenian
p723
sg15
I700
sg16
g17
sg18
g17
sg19
V/usr/share/fonts/truetype/noto/NotoSerifArmenian-Bold.ttf
p724
sg21
g22
sbag1
(g8
g3
NtRp725
(dp726
g11
g17
sg13
VSawasdee
p727
sg15
I400
sg16
g17
sg18
g17
sg19
V/usr/share/fonts/truetype/tlwg/Sawasdee.ttf
p728
sg21
g22
sbag1
(g8
g3
NtRp729
(dp730
g11
g17
sg13
VKacstOne
p731
sg15
I400
sg16
g17
sg18
g17
sg19
V/usr/share/fonts/truetype/kacst-one/KacstOne.ttf
p732
sg21
g22
sbag1
(g8
g3
NtRp733
(dp734
g11
g17
sg13
VNoto Sans Tibetan
p735
sg15
I400
sg16
g17
sg18
g17
sg19
V/usr/share/fonts/truetype/noto/NotoSansTibetan-Regular.ttf
p736
sg21
g22
sbag1
(g8
g3
NtRp737
(dp738
g11
g17
sg13
VFreeSans
p739
sg15
I700
sg16
g17
sg18
g17
sg19
V/usr/share/fonts/truetype/freefont/FreeSansBold.ttf
p740
sg21
g22
sbag1
(g8
g3
NtRp741
(dp742
g11
g17
sg13
VLiberation Mono
p743
sg15
I700
sg16
g17
sg18
g17
sg19
V/usr/share/fonts/truetype/liberation/LiberationMono-Bold.ttf
p744
sg21
g22
sbag1
(g8
g3
NtRp745
(dp746
g11
g17
sg13
VNoto Serif Devanagari
p747
sg15
I700
sg16
g17
sg18
g17
sg19
V/usr/share/fonts/truetype/noto/NotoSerifDevanagari-Bold.ttf
p748
sg21
g22
sbag1
(g8
g3
NtRp749
(dp750
g11
g17
sg13
VNoto Serif Georgian
p751
sg15
I700
sg16
g17
sg18
g17
sg19
V/usr/share/fonts/truetype/noto/NotoSerifGeorgian-Bold.ttf
p752
sg21
g22
sbag1
(g8
g3
NtRp753
(dp754
g11
g12
sg13
VLato
p755
sg15
I800
sg16
g17
sg18
g17
sg19
V/usr/share/fonts/truetype/lato/Lato-HeavyItalic.ttf
p756
sg21
g22
sbag1
(g8
g3
NtRp757
(dp758
g11
g17
sg13
VLiberation Sans Narrow
p759
sg15
I700
sg16
g263
sg18
g17
sg19
V/usr/share/fonts/truetype/liberation/LiberationSansNarrow-Bold.ttf
p760
sg21
g22
sbag1
(g8
g3
NtRp761
(dp762
g11
g17
sg13
VLato
p763
sg15
I900
sg16
g17
sg18
g17
sg19
V/usr/share/fonts/truetype/lato/Lato-Black.ttf
p764
sg21
g22
sbag1
(g8
g3
NtRp765
(dp766
g11
g17
sg13
VNoto Naskh Arabic UI
p767
sg15
I400
sg16
g17
sg18
g17
sg19
V/usr/share/fonts/truetype/noto/NotoNaskhArabicUI-Regular.ttf
p768
sg21
g22
sbag1
(g8
g3
NtRp769
(dp770
g11
g17
sg13
VPurisa
p771
sg15
I700
sg16
g17
sg18
g17
sg19
V/usr/share/fonts/truetype/tlwg/Purisa-Bold.ttf
p772
sg21
g22
sbag1
(g8
g3
NtRp773
(dp774
g11
g17
sg13
VFreeMono
p775
sg15
I700
sg16
g17
sg18
g17
sg19
V/usr/share/fonts/truetype/freefont/FreeMonoBold.ttf
p776
sg21
g22
sbag1
(g8
g3
NtRp777
(dp778
g11
g17
sg13
VTlwg Mono
p779
sg15
I700
sg16
g17
sg18
g17
sg19
V/usr/share/fonts/truetype/tlwg/TlwgMono-Bold.ttf
p780
sg21
g22
sbag1
(g8
g3
NtRp781
(dp782
g11
g17
sg13
VKacstNaskh
p783
sg15
I400
sg16
g17
sg18
g17
sg19
V/usr/share/fonts/truetype/kacst/KacstNaskh.ttf
p784
sg21
g22
sbag1
(g8
g3
NtRp785
(dp786
g11
g17
sg13
VTlwg Typist
p787
sg15
I700
sg16
g17
sg18
g17
sg19
V/usr/share/fonts/truetype/tlwg/TlwgTypist-Bold.ttf
p788
sg21
g22
sbag1
(g8
g3
NtRp789
(dp790
g11
g17
sg13
VNoto Sans Devanagari
p791
sg15
I700
sg16
g17
sg18
g17
sg19
V/usr/share/fonts/truetype/noto/NotoSansDevanagari-Bold.ttf
p792
sg21
g22
sbag1
(g8
g3
NtRp793
(dp794
g11
g17
sg13
VSTIXIntegralsD
p795
sg15
I700
sg16
g17
sg18
g17
sg19
V/usr/share/fonts/opentype/stix/STIXIntegralsD-Bold.otf
p796
sg21
g22
sbag1
(g8
g3
NtRp797
(dp798
g11
g17
sg13
VKacstBook
p799
sg15
I400
sg16
g17
sg18
g17
sg19
V/usr/share/fonts/truetype/kacst/KacstBook.ttf
p800
sg21
g22
sbag1
(g8
g3
NtRp801
(dp802
g11
g17
sg13
VDejaVu Sans
p803
sg15
I200
sg16
g17
sg18
g17
sg19
V/usr/share/fonts/truetype/dejavu/DejaVuSans-ExtraLight.ttf
p804
sg21
g22
sbag1
(g8
g3
NtRp805
(dp806
g11
g17
sg13
VNoto Sans Khmer
p807
sg15
I400
sg16
g17
sg18
g17
sg19
V/usr/share/fonts/truetype/noto/NotoSansKhmer-Regular.ttf
p808
sg21
g22
sbag1
(g8
g3
NtRp809
(dp810
g11
g17
sg13
VNoto Serif
p811
sg15
I700
sg16
g17
sg18
g17
sg19
V/usr/share/fonts/truetype/noto/NotoSerif-Bold.ttf
p812
sg21
g22
sbag1
(g8
g3
NtRp813
(dp814
g11
g17
sg13
VPurisa
p815
sg15
I400
sg16
g17
sg18
g17
sg19
V/usr/share/fonts/truetype/tlwg/Purisa.ttf
p816
sg21
g22
sbag1
(g8
g3
NtRp817
(dp818
g11
g17
sg13
VNoto Sans Lao
p819
sg15
I400
sg16
g17
sg18
g17
sg19
V/usr/share/fonts/truetype/noto/NotoSansLao-Regular.ttf
p820
sg21
g22
sbag1
(g8
g3
NtRp821
(dp822
g11
g17
sg13
VSTIXSizeOneSym
p823
sg15
I700
sg16
g17
sg18
g17
sg19
V/usr/share/fonts/opentype/stix/STIXSizeOneSym-Bold.otf
p824
sg21
g22
sbag1
(g8
g3
NtRp825
(dp826
g11
g17
sg13
VNoto Sans Sinhala
p827
sg15
I400
sg16
g17
sg18
g17
sg19
V/usr/share/fonts/truetype/noto/NotoSansSinhala-Regular.ttf
p828
sg21
g22
sbag1
(g8
g3
NtRp829
(dp830
g11
g12
sg13
VUbuntu
p831
sg15
I200
sg16
g17
sg18
g17
sg19
V/usr/share/fonts/truetype/ubuntu-font-family/Ubuntu-LI.ttf
p832
sg21
g22
sbag1
(g8
g3
NtRp833
(dp834
g11
g17
sg13
VNoto Sans Gurmukhi UI
p835
sg15
I700
sg16
g17
sg18
g17
sg19
V/usr/share/fonts/truetype/noto/NotoSansGurmukhiUI-Bold.ttf
p836
sg21
g22
sbag1
(g8
g3
NtRp837
(dp838
g11
g17
sg13
VNoto Sans Kannada
p839
sg15
I400
sg16
g17
sg18
g17
sg19
V/usr/share/fonts/truetype/noto/NotoSansKannada-Regular.ttf
p840
sg21
g22
sbag1
(g8
g3
NtRp841
(dp842
g11
g17
sg13
VNoto Serif Gujarati
p843
sg15
I700
sg16
g17
sg18
g17
sg19
V/usr/share/fonts/truetype/noto/NotoSerifGujarati-Bold.ttf
p844
sg21
g22
sbag1
(g8
g3
NtRp845
(dp846
g11
g37
sg13
VNorasi
p847
sg15
I700
sg16
g17
sg18
g17
sg19
V/usr/share/fonts/truetype/tlwg/Norasi-BoldOblique.ttf
p848
sg21
g22
sbag1
(g8
g3
NtRp849
(dp850
g11
g17
sg13
VNoto Sans Sinhala
p851
sg15
I700
sg16
g17
sg18
g17
sg19
V/usr/share/fonts/truetype/noto/NotoSansSinhala-Bold.ttf
p852
sg21
g22
sbag1
(g8
g3
NtRp853
(dp854
g11
g37
sg13
VUmpush
p855
sg15
I400
sg16
g17
sg18
g17
sg19
V/usr/share/fonts/truetype/tlwg/Umpush-Oblique.ttf
p856
sg21
g22
sbag1
(g8
g3
NtRp857
(dp858
g11
g17
sg13
VNanumGothic
p859
sg15
I700
sg16
g17
sg18
g17
sg19
V/usr/share/fonts/truetype/nanum/NanumGothicBold.ttf
p860
sg21
g22
sbag1
(g8
g3
NtRp861
(dp862
g11
g12
sg13
VLiberation Mono
p863
sg15
I700
sg16
g17
sg18
g17
sg19
V/usr/share/fonts/truetype/liberation/LiberationMono-BoldItalic.ttf
p864
sg21
g22
sbag1
(g8
g3
NtRp865
(dp866
g11
g17
sg13
VNoto Sans Malayalam
p867
sg15
I400
sg16
g17
sg18
g17
sg19
V/usr/share/fonts/truetype/noto/NotoSansMalayalam-Regular.ttf
p868
sg21
g22
sbag1
(g8
g3
NtRp869
(dp870
g11
g17
sg13
VPadauk
p871
sg15
I700
sg16
g17
sg18
g17
sg19
V/usr/share/fonts/truetype/padauk/Padauk-bold.ttf
p872
sg21
g22
sbag1
(g8
g3
NtRp873
(dp874
g11
g37
sg13
VLoma
p875
sg15
I700
sg16
g17
sg18
g17
sg19
V/usr/share/fonts/truetype/tlwg/Loma-BoldOblique.ttf
p876
sg21
g22
sbag1
(g8
g3
NtRp877
(dp878
g11
g17
sg13
VDejaVu Sans
p879
sg15
I400
sg16
g263
sg18
g17
sg19
V/usr/share/fonts/truetype/dejavu/DejaVuSansCondensed.ttf
p880
sg21
g22
sbag1
(g8
g3
NtRp881
(dp882
g11
g12
sg13
VSTIXNonUnicode
p883
sg15
I400
sg16
g17
sg18
g17
sg19
V/usr/share/fonts/opentype/stix/STIXNonUnicode-Italic.otf
p884
sg21
g22
sbag1
(g8
g3
NtRp885
(dp886
g11
g17
sg13
VTlwg Typewriter
p887
sg15
I400
sg16
g17
sg18
g17
sg19
V/usr/share/fonts/truetype/tlwg/TlwgTypewriter.ttf
p888
sg21
g22
sbag1
(g8
g3
NtRp889
(dp890
g11
g17
sg13
VKacstFarsi
p891
sg15
I400
sg16
g17
sg18
g17
sg19
V/usr/share/fonts/truetype/kacst/KacstFarsi.ttf
p892
sg21
g22
sbag1
(g8
g3
NtRp893
(dp894
g11
g17
sg13
VUbuntu Condensed
p895
sg15
I400
sg16
g263
sg18
g17
sg19
V/usr/share/fonts/truetype/ubuntu-font-family/Ubuntu-C.ttf
p896
sg21
g22
sbag1
(g8
g3
NtRp897
(dp898
g11
g37
sg13
VDejaVu Sans
p899
sg15
I700
sg16
g263
sg18
g17
sg19
V/usr/share/fonts/truetype/dejavu/DejaVuSansCondensed-BoldOblique.ttf
p900
sg21
g22
sbag1
(g8
g3
NtRp901
(dp902
g11
g17
sg13
VNoto Sans Malayalam UI
p903
sg15
I400
sg16
g17
sg18
g17
sg19
V/usr/share/fonts/truetype/noto/NotoSansMalayalamUI-Regular.ttf
p904
sg21
g22
sbag1
(g8
g3
NtRp905
(dp906
g11
g17
sg13
VLoma
p907
sg15
I400
sg16
g17
sg18
g17
sg19
V/usr/share/fonts/truetype/tlwg/Loma.ttf
p908
sg21
g22
sbag1
(g8
g3
NtRp909
(dp910
g11
g17
sg13
VNoto Sans Gurmukhi
p911
sg15
I400
sg16
g17
sg18
g17
sg19
V/usr/share/fonts/truetype/noto/NotoSansGurmukhi-Regular.ttf
p912
sg21
g22
sbag1
(g8
g3
NtRp913
(dp914
g11
g17
sg13
VWaree
p915
sg15
I400
sg16
g17
sg18
g17
sg19
V/usr/share/fonts/truetype/tlwg/Waree.ttf
p916
sg21
g22
sbag1
(g8
g3
NtRp917
(dp918
g11
g17
sg13
VOpenSymbol
p919
sg15
I400
sg16
g17
sg18
g17
sg19
V/usr/share/fonts/truetype/openoffice/opens___.ttf
p920
sg21
g22
sbag1
(g8
g3
NtRp921
(dp922
g11
g37
sg13
VGaruda
p923
sg15
I400
sg16
g17
sg18
g17
sg19
V/usr/share/fonts/truetype/tlwg/Garuda-Oblique.ttf
p924
sg21
g22
sbag1
(g8
g3
NtRp925
(dp926
g11
g37
sg13
VTlwg Mono
p927
sg15
I400
sg16
g17
sg18
g17
sg19
V/usr/share/fonts/truetype/tlwg/TlwgMono-Oblique.ttf
p928
sg21
g22
sbag1
(g8
g3
NtRp929
(dp930
g11
g17
sg13
VTakaoPGothic
p931
sg15
I400
sg16
g17
sg18
g17
sg19
V/usr/share/fonts/truetype/fonts-japanese-gothic.ttf
p932
sg21
g22
sbag1
(g8
g3
NtRp933
(dp934
g11
g17
sg13
VNoto Serif Armenian
p935
sg15
I400
sg16
g17
sg18
g17
sg19
V/usr/share/fonts/truetype/noto/NotoSerifArmenian-Regular.ttf
p936
sg21
g22
sbag1
(g8
g3
NtRp937
(dp938
g11
g12
sg13
VUbuntu
p939
sg15
I700
sg16
g17
sg18
g17
sg19
V/usr/share/fonts/truetype/ubuntu-font-family/Ubuntu-BI.ttf
p940
sg21
g22
sbag1
(g8
g3
NtRp941
(dp942
g11
g17
sg13
VSTIXSizeTwoSym
p943
sg15
I700
sg16
g17
sg18
g17
sg19
V/usr/share/fonts/opentype/stix/STIXSizeTwoSym-Bold.otf
p944
sg21
g22
sbag1
(g8
g3
NtRp945
(dp946
g11
g17
sg13
VDroid Sans Fallback
p947
sg15
I400
sg16
g17
sg18
g17
sg19
V/usr/share/fonts/truetype/droid/DroidSansFallbackFull.ttf
p948
sg21
g22
sbag1
(g8
g3
NtRp949
(dp950
g11
g17
sg13
VKhmer OS System
p951
sg15
I400
sg16
g17
sg18
g17
sg19
V/usr/share/fonts/truetype/ttf-khmeros-core/KhmerOSsys.ttf
p952
sg21
g22
sbag1
(g8
g3
NtRp953
(dp954
g11
g17
sg13
VSTIXSizeThreeSym
p955
sg15
I400
sg16
g17
sg18
g17
sg19
V/usr/share/fonts/opentype/stix/STIXSizeThreeSym-Regular.otf
p956
sg21
g22
sbag1
(g8
g3
NtRp957
(dp958
g11
g37
sg13
VTlwg Typist
p959
sg15
I400
sg16
g17
sg18
g17
sg19
V/usr/share/fonts/truetype/tlwg/TlwgTypist-Oblique.ttf
p960
sg21
g22
sbag1
(g8
g3
NtRp961
(dp962
g11
g17
sg13
VNorasi
p963
sg15
I400
sg16
g17
sg18
g17
sg19
V/usr/share/fonts/truetype/tlwg/Norasi.ttf
p964
sg21
g22
sbag1
(g8
g3
NtRp965
(dp966
g11
g17
sg13
VNoto Sans Thaana
p967
sg15
I700
sg16
g17
sg18
g17
sg19
V/usr/share/fonts/truetype/noto/NotoSansThaana-Bold.ttf
p968
sg21
g22
sbag1
(g8
g3
NtRp969
(dp970
g11
g17
sg13
VNoto Naskh Arabic
p971
sg15
I400
sg16
g17
sg18
g17
sg19
V/usr/share/fonts/truetype/noto/NotoNaskhArabic-Regular.ttf
p972
sg21
g22
sbag1
(g8
g3
NtRp973
(dp974
g11
g17
sg13
VNoto Serif Tamil
p975
sg15
I700
sg16
g17
sg18
g17
sg19
V/usr/share/fonts/truetype/noto/NotoSerifTamil-Bold.ttf
p976
sg21
g22
sbag1
(g8
g3
NtRp977
(dp978
g11
g17
sg13
VNoto Sans Telugu
p979
sg15
I700
sg16
g17
sg18
g17
sg19
V/usr/share/fonts/truetype/noto/NotoSansTelugu-Bold.ttf
p980
sg21
g22
sbag1
(g8
g3
NtRp981
(dp982
g11
g17
sg13
VKacstOne
p983
sg15
I700
sg16
g17
sg18
g17
sg19
V/usr/share/fonts/truetype/kacst-one/KacstOne-Bold.ttf
p984
sg21
g22
sbag1
(g8
g3
NtRp985
(dp986
g11
g37
sg13
VUmpush
p987
sg15
I700
sg16
g17
sg18
g17
sg19
V/usr/share/fonts/truetype/tlwg/Umpush-BoldOblique.ttf
p988
sg21
g22
sbag1
(g8
g3
NtRp989
(dp990
g11
g17
sg13
VUbuntu
p991
sg15
I700
sg16
g17
sg18
g17
sg19
V/usr/share/fonts/truetype/ubuntu-font-family/Ubuntu-B.ttf
p992
sg21
g22
sbag1
(g8
g3
NtRp993
(dp994
g11
g37
sg13
VFreeSans
p995
sg15
I700
sg16
g17
sg18
g17
sg19
V/usr/share/fonts/truetype/freefont/FreeSansBoldOblique.ttf
p996
sg21
g22
sbag1
(g8
g3
NtRp997
(dp998
g11
g12
sg13
VLato
p999
sg15
I400
sg16
g17
sg18
g17
sg19
V/usr/share/fonts/truetype/lato/Lato-HairlineItalic.ttf
p1000
sg21
g22
sbag1
(g8
g3
NtRp1001
(dp1002
g11
g17
sg13
VSTIX
p1003
sg15
I400
sg16
g17
sg18
g17
sg19
V/usr/share/fonts/opentype/stix-word/STIX-Regular.otf
p1004
sg21
g22
sbag1
(g8
g3
NtRp1005
(dp1006
g11
g17
sg13
VTlwg Typo
p1007
sg15
I700
sg16
g17
sg18
g17
sg19
V/usr/share/fonts/truetype/tlwg/TlwgTypo-Bold.ttf
p1008
sg21
g22
sbag1
(g8
g3
NtRp1009
(dp1010
g11
g17
sg13
VNoto Sans Malayalam
p1011
sg15
I700
sg16
g17
sg18
g17
sg19
V/usr/share/fonts/truetype/noto/NotoSansMalayalam-Bold.ttf
p1012
sg21
g22
sbag1
(g8
g3
NtRp1013
(dp1014
g11
g12
sg13
VUbuntu
p1015
sg15
I400
sg16
g17
sg18
g17
sg19
V/usr/share/fonts/truetype/ubuntu-font-family/Ubuntu-RI.ttf
p1016
sg21
g22
sbag1
(g8
g3
NtRp1017
(dp1018
g11
g17
sg13
VLato
p1019
sg15
I700
sg16
g17
sg18
g17
sg19
V/usr/share/fonts/truetype/lato/Lato-Bold.ttf
p1020
sg21
g22
sbag1
(g8
g3
NtRp1021
(dp1022
g11
g17
sg13
VPadauk Book
p1023
sg15
I700
sg16
g17
sg18
g17
sg19
V/usr/share/fonts/truetype/padauk/Padauk-bookbold.ttf
p1024
sg21
g22
sbag1
(g8
g3
NtRp1025
(dp1026
g11
g17
sg13
VNanumBarunGothic
p1027
sg15
I400
sg16
g17
sg18
g17
sg19
V/usr/share/fonts/truetype/nanum/NanumBarunGothic.ttf
p1028
sg21
g22
sbag1
(g8
g3
NtRp1029
(dp1030
g11
g17
sg13
VTlwg Typewriter
p1031
sg15
I700
sg16
g17
sg18
g17
sg19
V/usr/share/fonts/truetype/tlwg/TlwgTypewriter-Bold.ttf
p1032
sg21
g22
sbag1
(g8
g3
NtRp1033
(dp1034
g11
g37
sg13
VWaree
p1035
sg15
I700
sg16
g17
sg18
g17
sg19
V/usr/share/fonts/truetype/tlwg/Waree-BoldOblique.ttf
p1036
sg21
g22
sbag1
(g8
g3
NtRp1037
(dp1038
g11
g17
sg13
VFreeSans
p1039
sg15
I400
sg16
g17
sg18
g17
sg19
V/usr/share/fonts/truetype/freefont/FreeSans.ttf
p1040
sg21
g22
sbag1
(g8
g3
NtRp1041
(dp1042
g11
g17
sg13
VSTIXNonUnicode
p1043
sg15
I700
sg16
g17
sg18
g17
sg19
V/usr/share/fonts/opentype/stix/STIXNonUnicode-Bold.otf
p1044
sg21
g22
sbag1
(g8
g3
NtRp1045
(dp1046
g11
g17
sg13
VNoto Serif Malayalam
p1047
sg15
I400
sg16
g17
sg18
g17
sg19
V/usr/share/fonts/truetype/noto/NotoSerifMalayalam-Regular.ttf
p1048
sg21
g22
sbag1
(g8
g3
NtRp1049
(dp1050
g11
g17
sg13
VSaab
p1051
sg15
I400
sg16
g17
sg18
g17
sg19
V/usr/share/fonts/truetype/fonts-guru-extra/Saab.ttf
p1052
sg21
g22
sbag1
(g8
g3
NtRp1053
(dp1054
g11
g17
sg13
VNoto Serif Khmer
p1055
sg15
I400
sg16
g17
sg18
g17
sg19
V/usr/share/fonts/truetype/noto/NotoSerifKhmer-Regular.ttf
p1056
sg21
g22
sbag1
(g8
g3
NtRp1057
(dp1058
g11
g17
sg13
VNoto Sans Georgian
p1059
sg15
I700
sg16
g17
sg18
g17
sg19
V/usr/share/fonts/truetype/noto/NotoSansGeorgian-Bold.ttf
p1060
sg21
g22
sbag1
(g8
g3
NtRp1061
(dp1062
g11
g12
sg13
VFreeSerif
p1063
sg15
I700
sg16
g17
sg18
g17
sg19
V/usr/share/fonts/truetype/freefont/FreeSerifBoldItalic.ttf
p1064
sg21
g22
sbag1
(g8
g3
NtRp1065
(dp1066
g11
g12
sg13
VLato
p1067
sg15
I900
sg16
g17
sg18
g17
sg19
V/usr/share/fonts/truetype/lato/Lato-BlackItalic.ttf
p1068
sg21
g22
sbag1
(g8
g3
NtRp1069
(dp1070
g11
g12
sg13
VDejaVu Serif
p1071
sg15
I400
sg16
g263
sg18
g17
sg19
V/usr/share/fonts/truetype/dejavu/DejaVuSerifCondensed-Italic.ttf
p1072
sg21
g22
sbag1
(g8
g3
NtRp1073
(dp1074
g11
g17
sg13
VNoto Sans Kannada UI
p1075
sg15
I700
sg16
g17
sg18
g17
sg19
V/usr/share/fonts/truetype/noto/NotoSansKannadaUI-Bold.ttf
p1076
sg21
g22
sbag1
(g8
g3
NtRp1077
(dp1078
g11
g17
sg13
VKacstArt
p1079
sg15
I400
sg16
g17
sg18
g17
sg19
V/usr/share/fonts/truetype/kacst/KacstArt.ttf
p1080
sg21
g22
sbag1
(g8
g3
NtRp1081
(dp1082
g11
g17
sg13
VNoto Serif Telugu
p1083
sg15
I700
sg16
g17
sg18
g17
sg19
V/usr/share/fonts/truetype/noto/NotoSerifTelugu-Bold.ttf
p1084
sg21
g22
sbag1
(g8
g3
NtRp1085
(dp1086
g11
g17
sg13
VLato
p1087
sg15
I700
sg16
g17
sg18
g17
sg19
V/usr/share/fonts/truetype/lato/Lato-Semibold.ttf
p1088
sg21
g22
sbag1
(g8
g3
NtRp1089
(dp1090
g11
g12
sg13
VLiberation Sans Narrow
p1091
sg15
I700
sg16
g263
sg18
g17
sg19
V/usr/share/fonts/truetype/liberation/LiberationSansNarrow-BoldItalic.ttf
p1092
sg21
g22
sbag1
(g8
g3
NtRp1093
(dp1094
g11
g17
sg13
VSTIXSizeThreeSym
p1095
sg15
I700
sg16
g17
sg18
g17
sg19
V/usr/share/fonts/opentype/stix/STIXSizeThreeSym-Bold.otf
p1096
sg21
g22
sbag1
(g8
g3
NtRp1097
(dp1098
g11
g17
sg13
VSTIXIntegralsUpSm
p1099
sg15
I700
sg16
g17
sg18
g17
sg19
V/usr/share/fonts/opentype/stix/STIXIntegralsUpSm-Bold.otf
p1100
sg21
g22
sbag1
(g8
g3
NtRp1101
(dp1102
g11
g17
sg13
VLiberation Serif
p1103
sg15
I400
sg16
g17
sg18
g17
sg19
V/usr/share/fonts/truetype/liberation/LiberationSerif-Regular.ttf
p1104
sg21
g22
sbag1
(g8
g3
NtRp1105
(dp1106
g11
g17
sg13
VNoto Sans Tibetan
p1107
sg15
I700
sg16
g17
sg18
g17
sg19
V/usr/share/fonts/truetype/noto/NotoSansTibetan-Bold.ttf
p1108
sg21
g22
sbag1
(g8
g3
NtRp1109
(dp1110
g11
g17
sg13
VNoto Serif Telugu
p1111
sg15
I400
sg16
g17
sg18
g17
sg19
V/usr/share/fonts/truetype/noto/NotoSerifTelugu-Regular.ttf
p1112
sg21
g22
sbag1
(g8
g3
NtRp1113
(dp1114
g11
g17
sg13
VNoto Serif Malayalam
p1115
sg15
I700
sg16
g17
sg18
g17
sg19
V/usr/share/fonts/truetype/noto/NotoSerifMalayalam-Bold.ttf
p1116
sg21
g22
sbag1
(g8
g3
NtRp1117
(dp1118
g11
g12
sg13
VSTIX
p1119
sg15
I700
sg16
g17
sg18
g17
sg19
V/usr/share/fonts/opentype/stix-word/STIX-BoldItalic.otf
p1120
sg21
g22
sbag1
(g8
g3
NtRp1121
(dp1122
g11
g12
sg13
VLato
p1123
sg15
I700
sg16
g17
sg18
g17
sg19
V/usr/share/fonts/truetype/lato/Lato-SemiboldItalic.ttf
p1124
sg21
g22
sbag1
(g8
g3
NtRp1125
(dp1126
g11
g17
sg13
VSTIXIntegralsSm
p1127
sg15
I700
sg16
g17
sg18
g17
sg19
V/usr/share/fonts/opentype/stix/STIXIntegralsSm-Bold.otf
p1128
sg21
g22
sbag1
(g8
g3
NtRp1129
(dp1130
g11
g37
sg13
VPurisa
p1131
sg15
I700
sg16
g17
sg18
g17
sg19
V/usr/share/fonts/truetype/tlwg/Purisa-BoldOblique.ttf
p1132
sg21
g22
sbag1
(g8
g3
NtRp1133
(dp1134
g11
g37
sg13
VTlwg Typo
p1135
sg15
I400
sg16
g17
sg18
g17
sg19
V/usr/share/fonts/truetype/tlwg/TlwgTypo-Oblique.ttf
p1136
sg21
g22
sbag1
(g8
g3
NtRp1137
(dp1138
g11
g17
sg13
VUbuntu Mono
p1139
sg15
I700
sg16
g17
sg18
g17
sg19
V/usr/share/fonts/truetype/ubuntu-font-family/UbuntuMono-B.ttf
p1140
sg21
g22
sbag1
(g8
g3
NtRp1141
(dp1142
g11
g17
sg13
VSTIX
p1143
sg15
I700
sg16
g17
sg18
g17
sg19
V/usr/share/fonts/opentype/stix-word/STIX-Bold.otf
p1144
sg21
g22
sbag1
(g8
g3
NtRp1145
(dp1146
g11
g17
sg13
VKinnari
p1147
sg15
I400
sg16
g17
sg18
g17
sg19
V/usr/share/fonts/truetype/tlwg/Kinnari.ttf
p1148
sg21
g22
sbag1
(g8
g3
NtRp1149
(dp1150
g11
g17
sg13
VNoto Sans Tamil UI
p1151
sg15
I400
sg16
g17
sg18
g17
sg19
V/usr/share/fonts/truetype/noto/NotoSansTamilUI-Regular.ttf
p1152
sg21
g22
sbag1
(g8
g3
NtRp1153
(dp1154
g11
g17
sg13
VSTIXIntegralsD
p1155
sg15
I400
sg16
g17
sg18
g17
sg19
V/usr/share/fonts/opentype/stix/STIXIntegralsD-Regular.otf
p1156
sg21
g22
sbag1
(g8
g3
NtRp1157
(dp1158
g11
g17
sg13
VNoto Sans UI
p1159
sg15
I400
sg16
g17
sg18
g17
sg19
V/usr/share/fonts/truetype/noto/NotoSansUI-Regular.ttf
p1160
sg21
g22
sbag1
(g8
g3
NtRp1161
(dp1162
g11
g17
sg13
VNoto Sans Cham
p1163
sg15
I700
sg16
g17
sg18
g17
sg19
V/usr/share/fonts/truetype/noto/NotoSansCham-Bold.ttf
p1164
sg21
g22
sbag1
(g8
g3
NtRp1165
(dp1166
g11
g17
sg13
VNoto Sans Oriya UI
p1167
sg15
I400
sg16
g17
sg18
g17
sg19
V/usr/share/fonts/truetype/noto/NotoSansOriyaUI-Regular.ttf
p1168
sg21
g22
sbag1
(g8
g3
NtRp1169
(dp1170
g11
g37
sg13
VWaree
p1171
sg15
I400
sg16
g17
sg18
g17
sg19
V/usr/share/fonts/truetype/tlwg/Waree-Oblique.ttf
p1172
sg21
g22
sbag1
(g8
g3
NtRp1173
(dp1174
g11
g17
sg13
VNoto Sans Myanmar UI
p1175
sg15
I400
sg16
g17
sg18
g17
sg19
V/usr/share/fonts/truetype/noto/NotoSansMyanmarUI-Regular.ttf
p1176
sg21
g22
sbag1
(g8
g3
NtRp1177
(dp1178
g11
g17
sg13
VNoto Sans Oriya UI
p1179
sg15
I700
sg16
g17
sg18
g17
sg19
V/usr/share/fonts/truetype/noto/NotoSansOriyaUI-Bold.ttf
p1180
sg21
g22
sbag1
(g8
g3
NtRp1181
(dp1182
g11
g17
sg13
VNoto Sans Khmer UI
p1183
sg15
I400
sg16
g17
sg18
g17
sg19
V/usr/share/fonts/truetype/noto/NotoSansKhmerUI-Regular.ttf
p1184
sg21
g22
sbag1
(g8
g3
NtRp1185
(dp1186
g11
g37
sg13
VTlwg Mono
p1187
sg15
I700
sg16
g17
sg18
g17
sg19
V/usr/share/fonts/truetype/tlwg/TlwgMono-BoldOblique.ttf
p1188
sg21
g22
sbag1
(g8
g3
NtRp1189
(dp1190
g11
g12
sg13
VUbuntu
p1191
sg15
I500
sg16
g17
sg18
g17
sg19
V/usr/share/fonts/truetype/ubuntu-font-family/Ubuntu-MI.ttf
p1192
sg21
g22
sbag1
(g8
g3
NtRp1193
(dp1194
g11
g17
sg13
VNoto Sans Bengali
p1195
sg15
I700
sg16
g17
sg18
g17
sg19
V/usr/share/fonts/truetype/noto/NotoSansBengali-Bold.ttf
p1196
sg21
g22
sbag1
(g8
g3
NtRp1197
(dp1198
g11
g17
sg13
VKinnari
p1199
sg15
I700
sg16
g17
sg18
g17
sg19
V/usr/share/fonts/truetype/tlwg/Kinnari-Bold.ttf
p1200
sg21
g22
sbag1
(g8
g3
NtRp1201
(dp1202
g11
g17
sg13
VNoto Sans Lao
p1203
sg15
I700
sg16
g17
sg18
g17
sg19
V/usr/share/fonts/truetype/noto/NotoSansLao-Bold.ttf
p1204
sg21
g22
sbag1
(g8
g3
NtRp1205
(dp1206
g11
g37
sg13
VFreeMono
p1207
sg15
I400
sg16
g17
sg18
g17
sg19
V/usr/share/fonts/truetype/freefont/FreeMonoOblique.ttf
p1208
sg21
g22
sbag1
(g8
g3
NtRp1209
(dp1210
g11
g12
sg13
VUbuntu Mono
p1211
sg15
I700
sg16
g17
sg18
g17
sg19
V/usr/share/fonts/truetype/ubuntu-font-family/UbuntuMono-BI.ttf
p1212
sg21
g22
sbag1
(g8
g3
NtRp1213
(dp1214
g11
g12
sg13
VSTIXNonUnicode
p1215
sg15
I700
sg16
g17
sg18
g17
sg19
V/usr/share/fonts/opentype/stix/STIXNonUnicode-BoldItalic.otf
p1216
sg21
g22
sbag1
(g8
g3
NtRp1217
(dp1218
g11
g17
sg13
VNoto Sans Oriya
p1219
sg15
I400
sg16
g17
sg18
g17
sg19
V/usr/share/fonts/truetype/noto/NotoSansOriya-Regular.ttf
p1220
sg21
g22
sbag1
(g8
g3
NtRp1221
(dp1222
g11
g37
sg13
VTlwg Typewriter
p1223
sg15
I700
sg16
g17
sg18
g17
sg19
V/usr/share/fonts/truetype/tlwg/TlwgTypewriter-BoldOblique.ttf
p1224
sg21
g22
sbag1
(g8
g3
NtRp1225
(dp1226
g11
g17
sg13
VDejaVu Serif
p1227
sg15
I400
sg16
g263
sg18
g17
sg19
V/usr/share/fonts/truetype/dejavu/DejaVuSerifCondensed.ttf
p1228
sg21
g22
sbag1
(g8
g3
NtRp1229
(dp1230
g11
g17
sg13
VSTIXSizeFourSym
p1231
sg15
I700
sg16
g17
sg18
g17
sg19
V/usr/share/fonts/opentype/stix/STIXSizeFourSym-Bold.otf
p1232
sg21
g22
sbag1
(g8
g3
NtRp1233
(dp1234
g11
g17
sg13
VFreeSerif
p1235
sg15
I400
sg16
g17
sg18
g17
sg19
V/usr/share/fonts/truetype/freefont/FreeSerif.ttf
p1236
sg21
g22
sbag1
(g8
g3
NtRp1237
(dp1238
g11
g17
sg13
VNoto Sans Devanagari
p1239
sg15
I400
sg16
g17
sg18
g17
sg19
V/usr/share/fonts/truetype/noto/NotoSansDevanagari-Regular.ttf
p1240
sg21
g22
sbag1
(g8
g3
NtRp1241
(dp1242
g11
g17
sg13
VNoto Sans Ethiopic
p1243
sg15
I700
sg16
g17
sg18
g17
sg19
V/usr/share/fonts/truetype/noto/NotoSansEthiopic-Bold.ttf
p1244
sg21
g22
sbag1
(g8
g3
NtRp1245
(dp1246
g11
g12
sg13
VNoto Serif
p1247
sg15
I400
sg16
g17
sg18
g17
sg19
V/usr/share/fonts/truetype/noto/NotoSerif-Italic.ttf
p1248
sg21
g22
sbag1
(g8
g3
NtRp1249
(dp1250
g11
g17
sg13
VNoto Sans
p1251
sg15
I400
sg16
g17
sg18
g17
sg19
V/usr/share/fonts/truetype/noto/NotoSans-Regular.ttf
p1252
sg21
g22
sbag1
(g8
g3
NtRp1253
(dp1254
g11
g12
sg13
VLato
p1255
sg15
I200
sg16
g17
sg18
g17
sg19
V/usr/share/fonts/truetype/lato/Lato-LightItalic.ttf
p1256
sg21
g22
sbag1
(g8
g3
NtRp1257
(dp1258
g11
g17
sg13
VNoto Serif Bengali
p1259
sg15
I700
sg16
g17
sg18
g17
sg19
V/usr/share/fonts/truetype/noto/NotoSerifBengali-Bold.ttf
p1260
sg21
g22
sbag1
(g8
g3
NtRp1261
(dp1262
g11
g17
sg13
VNoto Sans Devanagari UI
p1263
sg15
I400
sg16
g17
sg18
g17
sg19
V/usr/share/fonts/truetype/noto/NotoSansDevanagariUI-Regular.ttf
p1264
sg21
g22
sbag1
(g8
g3
NtRp1265
(dp1266
g11
g17
sg13
VSTIXVariants
p1267
sg15
I700
sg16
g17
sg18
g17
sg19
V/usr/share/fonts/opentype/stix/STIXVariants-Bold.otf
p1268
sg21
g22
sbag1
(g8
g3
NtRp1269
(dp1270
g11
g17
sg13
VNoto Sans Gujarati UI
p1271
sg15
I400
sg16
g17
sg18
g17
sg19
V/usr/share/fonts/truetype/noto/NotoSansGujaratiUI-Regular.ttf
p1272
sg21
g22
sbag1
(g8
g3
NtRp1273
(dp1274
g11
g37
sg13
VPurisa
p1275
sg15
I400
sg16
g17
sg18
g17
sg19
V/usr/share/fonts/truetype/tlwg/Purisa-Oblique.ttf
p1276
sg21
g22
sbag1
(g8
g3
NtRp1277
(dp1278
g11
g17
sg13
VNoto Sans Gujarati
p1279
sg15
I700
sg16
g17
sg18
g17
sg19
V/usr/share/fonts/truetype/noto/NotoSansGujarati-Bold.ttf
p1280
sg21
g22
sbag1
(g8
g3
NtRp1281
(dp1282
g11
g17
sg13
VKacstQurn
p1283
sg15
I400
sg16
g17
sg18
g17
sg19
V/usr/share/fonts/truetype/kacst/KacstQurn.ttf
p1284
sg21
g22
sbag1
(g8
g3
NtRp1285
(dp1286
g11
g37
sg13
VSawasdee
p1287
sg15
I700
sg16
g17
sg18
g17
sg19
V/usr/share/fonts/truetype/tlwg/Sawasdee-BoldOblique.ttf
p1288
sg21
g22
sbag1
(g8
g3
NtRp1289
(dp1290
g11
g17
sg13
VSawasdee
p1291
sg15
I700
sg16
g17
sg18
g17
sg19
V/usr/share/fonts/truetype/tlwg/Sawasdee-Bold.ttf
p1292
sg21
g22
sbag1
(g8
g3
NtRp1293
(dp1294
g11
g12
sg13
VLato
p1295
sg15
I400
sg16
g17
sg18
g17
sg19
V/usr/share/fonts/truetype/lato/Lato-ThinItalic.ttf
p1296
sg21
g22
sbag1
(g8
g3
NtRp1297
(dp1298
g11
g17
sg13
VSTIXIntegralsSm
p1299
sg15
I400
sg16
g17
sg18
g17
sg19
V/usr/share/fonts/opentype/stix/STIXIntegralsSm-Regular.otf
p1300
sg21
g22
sbag1
(g8
g3
NtRp1301
(dp1302
g11
g17
sg13
VSTIXGeneral
p1303
sg15
I400
sg16
g17
sg18
g17
sg19
V/usr/share/fonts/opentype/stix/STIXGeneral-Regular.otf
p1304
sg21
g22
sbag1
(g8
g3
NtRp1305
(dp1306
g11
g17
sg13
VSTIXSizeOneSym
p1307
sg15
I400
sg16
g17
sg18
g17
sg19
V/usr/share/fonts/opentype/stix/STIXSizeOneSym-Regular.otf
p1308
sg21
g22
sbag1
(g8
g3
NtRp1309
(dp1310
g11
g17
sg13
VNoto Sans Bengali UI
p1311
sg15
I400
sg16
g17
sg18
g17
sg19
V/usr/share/fonts/truetype/noto/NotoSansBengaliUI-Regular.ttf
p1312
sg21
g22
sbag1
(g8
g3
NtRp1313
(dp1314
g11
g17
sg13
VSTIX Math
p1315
sg15
I400
sg16
g17
sg18
g17
sg19
V/usr/share/fonts/opentype/stix-word/STIXMath-Regular.otf
p1316
sg21
g22
sbag1
(g8
g3
NtRp1317
(dp1318
g11
g17
sg13
VAbyssinica SIL
p1319
sg15
I400
sg16
g17
sg18
g17
sg19
V/usr/share/fonts/truetype/abyssinica/AbyssinicaSIL-R.ttf
p1320
sg21
g22
sbag1
(g8
g3
NtRp1321
(dp1322
g11
g17
sg13
VNoto Sans Thaana
p1323
sg15
I400
sg16
g17
sg18
g17
sg19
V/usr/share/fonts/truetype/noto/NotoSansThaana-Regular.ttf
p1324
sg21
g22
sbag1
(g8
g3
NtRp1325
(dp1326
g11
g37
sg13
VSawasdee
p1327
sg15
I400
sg16
g17
sg18
g17
sg19
V/usr/share/fonts/truetype/tlwg/Sawasdee-Oblique.ttf
p1328
sg21
g22
sbag1
(g8
g3
NtRp1329
(dp1330
g11
g17
sg13
VNoto Serif Khmer
p1331
sg15
I700
sg16
g17
sg18
g17
sg19
V/usr/share/fonts/truetype/noto/NotoSerifKhmer-Bold.ttf
p1332
sg21
g22
sbag1
(g8
g3
NtRp1333
(dp1334
g11
g17
sg13
VNanumMyeongjo
p1335
sg15
I400
sg16
g17
sg18
g17
sg19
V/usr/share/fonts/truetype/nanum/NanumMyeongjo.ttf
p1336
sg21
g22
sbag1
(g8
g3
NtRp1337
(dp1338
g11
g17
sg13
VNoto Sans Armenian
p1339
sg15
I400
sg16
g17
sg18
g17
sg19
V/usr/share/fonts/truetype/noto/NotoSansArmenian-Regular.ttf
p1340
sg21
g22
sbag1
(g8
g3
NtRp1341
(dp1342
g11
g12
sg13
VNoto Serif
p1343
sg15
I700
sg16
g17
sg18
g17
sg19
V/usr/share/fonts/truetype/noto/NotoSerif-BoldItalic.ttf
p1344
sg21
g22
sbag1
(g8
g3
NtRp1345
(dp1346
g11
g17
sg13
VKhmer OS
p1347
sg15
I400
sg16
g17
sg18
g17
sg19
V/usr/share/fonts/truetype/ttf-khmeros-core/KhmerOS.ttf
p1348
sg21
g22
sbag1
(g8
g3
NtRp1349
(dp1350
g11
g17
sg13
VSTIXGeneral
p1351
sg15
I700
sg16
g17
sg18
g17
sg19
V/usr/share/fonts/opentype/stix/STIXGeneral-Bold.otf
p1352
sg21
g22
sbag1
(g8
g3
NtRp1353
(dp1354
g11
g17
sg13
VPadauk
p1355
sg15
I400
sg16
g17
sg18
g17
sg19
V/usr/share/fonts/truetype/padauk/Padauk.ttf
p1356
sg21
g22
sbag1
(g8
g3
NtRp1357
(dp1358
g11
g12
sg13
VNorasi
p1359
sg15
I400
sg16
g17
sg18
g17
sg19
V/usr/share/fonts/truetype/tlwg/Norasi-Italic.ttf
p1360
sg21
g22
sbag1
(g8
g3
NtRp1361
(dp1362
g11
g17
sg13
VNoto Sans Kannada
p1363
sg15
I700
sg16
g17
sg18
g17
sg19
V/usr/share/fonts/truetype/noto/NotoSansKannada-Bold.ttf
p1364
sg21
g22
sbag1
(g8
g3
NtRp1365
(dp1366
g11
g17
sg13
VNoto Sans Tamil
p1367
sg15
I400
sg16
g17
sg18
g17
sg19
V/usr/share/fonts/truetype/noto/NotoSansTamil-Regular.ttf
p1368
sg21
g22
sbag1
(g8
g3
NtRp1369
(dp1370
g11
g12
sg13
VLaksaman
p1371
sg15
I400
sg16
g17
sg18
g17
sg19
V/usr/share/fonts/truetype/tlwg/Laksaman-Italic.ttf
p1372
sg21
g22
sbag1
(g8
g3
NtRp1373
(dp1374
g11
g17
sg13
VTakaoPGothic
p1375
sg15
I400
sg16
g17
sg18
g17
sg19
V/usr/share/fonts/truetype/takao-gothic/TakaoPGothic.ttf
p1376
sg21
g22
sbag1
(g8
g3
NtRp1377
(dp1378
g11
g17
sg13
VNoto Sans Telugu UI
p1379
sg15
I400
sg16
g17
sg18
g17
sg19
V/usr/share/fonts/truetype/noto/NotoSansTeluguUI-Regular.ttf
p1380
sg21
g22
sbag1
(g8
g3
NtRp1381
(dp1382
g11
g12
sg13
VSTIX
p1383
sg15
I400
sg16
g17
sg18
g17
sg19
V/usr/share/fonts/opentype/stix-word/STIX-Italic.otf
p1384
sg21
g22
sbag1
(g8
g3
NtRp1385
(dp1386
g11
g17
sg13
VNoto Sans Devanagari UI
p1387
sg15
I700
sg16
g17
sg18
g17
sg19
V/usr/share/fonts/truetype/noto/NotoSansDevanagariUI-Bold.ttf
p1388
sg21
g22
sbag1
(g8
g3
NtRp1389
(dp1390
g11
g12
sg13
VUbuntu Mono
p1391
sg15
I400
sg16
g17
sg18
g17
sg19
V/usr/share/fonts/truetype/ubuntu-font-family/UbuntuMono-RI.ttf
p1392
sg21
g22
sbag1
(g8
g3
NtRp1393
(dp1394
g11
g17
sg13
VKacstLetter
p1395
sg15
I400
sg16
g17
sg18
g17
sg19
V/usr/share/fonts/truetype/kacst/KacstLetter.ttf
p1396
sg21
g22
sbag1
(g8
g3
NtRp1397
(dp1398
g11
g17
sg13
VKacstPen
p1399
sg15
I400
sg16
g17
sg18
g17
sg19
V/usr/share/fonts/truetype/kacst/KacstPen.ttf
p1400
sg21
g22
sbag1
(g8
g3
NtRp1401
(dp1402
g11
g17
sg13
VSTIXSizeFourSym
p1403
sg15
I400
sg16
g17
sg18
g17
sg19
V/usr/share/fonts/opentype/stix/STIXSizeFourSym-Regular.otf
p1404
sg21
g22
sbag1
(g8
g3
NtRp1405
(dp1406
g11
g17
sg13
VFreeMono
p1407
sg15
I400
sg16
g17
sg18
g17
sg19
V/usr/share/fonts/truetype/freefont/FreeMono.ttf
p1408
sg21
g22
sbag1
(g8
g3
NtRp1409
(dp1410
g11
g17
sg13
VTlwg Mono
p1411
sg15
I400
sg16
g17
sg18
g17
sg19
V/usr/share/fonts/truetype/tlwg/TlwgMono.ttf
p1412
sg21
g22
sbag1
(g8
g3
NtRp1413
(dp1414
g11
g17
sg13
VNoto Sans Gurmukhi
p1415
sg15
I700
sg16
g17
sg18
g17
sg19
V/usr/share/fonts/truetype/noto/NotoSansGurmukhi-Bold.ttf
p1416
sg21
g22
sbag1
(g8
g3
NtRp1417
(dp1418
g11
g17
sg13
VNoto Sans Bengali UI
p1419
sg15
I700
sg16
g17
sg18
g17
sg19
V/usr/share/fonts/truetype/noto/NotoSansBengaliUI-Bold.ttf
p1420
sg21
g22
sbag1
(g8
g3
NtRp1421
(dp1422
g11
g17
sg13
VKacstTitleL
p1423
sg15
I400
sg16
g17
sg18
g17
sg19
V/usr/share/fonts/truetype/kacst/KacstTitleL.ttf
p1424
sg21
g22
sbag1
(g8
g3
NtRp1425
(dp1426
g11
g12
sg13
VFreeSerif
p1427
sg15
I400
sg16
g17
sg18
g17
sg19
V/usr/share/fonts/truetype/freefont/FreeSerifItalic.ttf
p1428
sg21
g22
sbag1
(g8
g3
NtRp1429
(dp1430
g11
g17
sg13
VLiberation Sans Narrow
p1431
sg15
I400
sg16
g263
sg18
g17
sg19
V/usr/share/fonts/truetype/liberation/LiberationSansNarrow-Regular.ttf
p1432
sg21
g22
sbag1
(g8
g3
NtRp1433
(dp1434
g11
g17
sg13
VUbuntu
p1435
sg15
I200
sg16
g17
sg18
g17
sg19
V/usr/share/fonts/truetype/ubuntu-font-family/Ubuntu-L.ttf
p1436
sg21
g22
sbag1
(g8
g3
NtRp1437
(dp1438
g11
g17
sg13
VNoto Sans Kannada UI
p1439
sg15
I400
sg16
g17
sg18
g17
sg19
V/usr/share/fonts/truetype/noto/NotoSansKannadaUI-Regular.ttf
p1440
sg21
g22
sbag1
(g8
g3
NtRp1441
(dp1442
g11
g17
sg13
VKacstDecorative
p1443
sg15
I400
sg16
g17
sg18
g17
sg19
V/usr/share/fonts/truetype/kacst/KacstDecorative.ttf
p1444
sg21
g22
sbag1
(g8
g3
NtRp1445
(dp1446
g11
g37
sg13
VTlwg Typewriter
p1447
sg15
I400
sg16
g17
sg18
g17
sg19
V/usr/share/fonts/truetype/tlwg/TlwgTypewriter-Oblique.ttf
p1448
sg21
g22
sbag1
(g8
g3
NtRp1449
(dp1450
g11
g12
sg13
VLiberation Sans Narrow
p1451
sg15
I400
sg16
g263
sg18
g17
sg19
V/usr/share/fonts/truetype/liberation/LiberationSansNarrow-Italic.ttf
p1452
sg21
g22
sbag1
(g8
g3
NtRp1453
(dp1454
g11
g17
sg13
VNoto Sans Thai
p1455
sg15
I700
sg16
g17
sg18
g17
sg19
V/usr/share/fonts/truetype/noto/NotoSansThai-Bold.ttf
p1456
sg21
g22
sbag1
(g8
g3
NtRp1457
(dp1458
g11
g17
sg13
VNoto Sans Cham
p1459
sg15
I400
sg16
g17
sg18
g17
sg19
V/usr/share/fonts/truetype/noto/NotoSansCham-Regular.ttf
p1460
sg21
g22
sbasS'defaultFamily'
p1461
(dp1462
Vafm
p1463
VHelvetica
p1464
sVttf
p1465
VBitstream Vera Sans
p1466
ssS'ttffiles'
p1467
(lp1468
g20
ag26
ag30
ag34
ag39
ag43
ag47
ag51
ag55
ag59
ag63
ag67
ag71
ag75
ag79
ag83
ag87
ag91
ag95
ag99
ag103
ag107
ag111
ag115
ag119
ag123
ag127
ag131
ag135
ag139
ag143
ag147
ag151
ag155
ag159
ag163
ag167
ag171
ag175
ag179
ag183
ag187
ag191
ag195
ag199
ag203
ag207
ag211
ag215
ag219
ag223
ag227
ag231
ag235
ag239
ag243
ag247
ag251
ag255
ag259
ag264
ag268
ag272
ag276
ag280
ag284
ag288
ag292
ag296
ag300
ag304
ag308
ag312
ag316
ag320
ag324
ag328
ag332
ag336
ag340
aV/usr/share/fonts/truetype/dejavu/DejaVuSerif.ttf
p1469
ag344
ag348
ag352
ag356
ag360
ag364
ag368
ag372
ag376
ag380
ag384
ag388
ag392
ag396
ag400
ag404
ag408
aV/usr/share/fonts/truetype/dejavu/DejaVuSansMono-Bold.ttf
p1470
ag412
ag416
ag420
ag424
ag428
ag432
ag436
ag440
ag444
ag448
ag452
ag456
ag460
aV/usr/share/fonts/truetype/dejavu/DejaVuSans-BoldOblique.ttf
p1471
ag464
ag468
ag472
ag476
ag480
ag484
ag488
ag492
ag496
ag500
ag504
ag508
ag512
ag516
ag520
ag524
ag528
ag532
ag536
aV/usr/share/fonts/truetype/dejavu/DejaVuSerif-Italic.ttf
p1472
ag540
ag544
ag548
aV/usr/share/fonts/truetype/dejavu/DejaVuSansMono-Oblique.ttf
p1473
ag552
ag556
ag560
ag564
ag568
ag572
ag576
ag580
ag584
ag588
ag592
ag596
ag600
ag604
ag608
ag612
ag616
ag620
ag624
ag628
ag632
ag636
ag640
aV/usr/share/fonts/truetype/dejavu/DejaVuSerif-BoldItalic.ttf
p1474
ag644
ag648
ag652
ag656
ag660
ag664
ag668
ag672
ag676
ag680
ag684
ag688
ag692
ag696
ag700
ag704
ag708
ag712
ag716
ag720
ag724
ag728
ag732
aV/usr/share/fonts/truetype/dejavu/DejaVuSansMono-BoldOblique.ttf
p1475
ag736
ag740
ag744
ag748
ag752
ag756
ag760
ag764
ag768
ag772
ag776
ag780
ag784
ag788
ag792
ag796
ag800
ag804
ag808
ag812
ag816
ag820
ag824
ag828
ag832
ag836
ag840
ag844
ag848
ag852
ag856
ag860
ag864
ag868
ag872
ag876
ag880
ag884
aV/usr/share/fonts/truetype/dejavu/DejaVuSansMono.ttf
p1476
ag888
ag892
ag896
ag900
ag904
ag908
ag912
ag916
ag920
ag924
ag928
ag932
ag936
ag940
ag944
ag948
ag952
ag956
ag960
ag964
ag968
ag972
ag976
ag980
ag984
ag988
ag992
ag996
ag1000
ag1004
ag1008
ag1012
aV/usr/share/fonts/truetype/dejavu/DejaVuSans-Bold.ttf
p1477
ag1016
ag1020
ag1024
ag1028
ag1032
ag1036
ag1040
ag1044
aV/usr/share/fonts/truetype/dejavu/DejaVuSerif-Bold.ttf
p1478
ag1048
ag1052
ag1056
ag1060
ag1064
ag1068
ag1072
ag1076
ag1080
ag1084
ag1088
ag1092
ag1096
ag1100
ag1104
ag1108
ag1112
ag1116
ag1120
ag1124
ag1128
ag1132
ag1136
ag1140
ag1144
ag1148
ag1152
ag1156
ag1160
ag1164
ag1168
ag1172
ag1176
ag1180
aV/usr/share/fonts/truetype/dejavu/DejaVuSans.ttf
p1479
ag1184
ag1188
ag1192
ag1196
ag1200
ag1204
ag1208
ag1212
ag1216
ag1220
ag1224
ag1228
aV/usr/share/fonts/truetype/dejavu/DejaVuSans-Oblique.ttf
p1480
ag1232
ag1236
ag1240
ag1244
ag1248
ag1252
ag1256
ag1260
ag1264
ag1268
ag1272
ag1276
ag1280
ag1284
ag1288
ag1292
ag1296
ag1300
ag1304
ag1308
ag1312
ag1316
ag1320
ag1324
ag1328
ag1332
ag1336
ag1340
ag1344
ag1348
ag1352
ag1356
ag1360
ag1364
ag1368
ag1372
ag1376
ag1380
ag1384
ag1388
ag1392
ag1396
ag1400
ag1404
ag1408
ag1412
ag1416
ag1420
ag1424
ag1428
ag1432
ag1436
ag1440
ag1444
ag1448
ag1452
ag1456
ag1460
asS'_FontManager__default_weight'
p1481
Vnormal
p1482
sS'_version'
p1483
I101
sS'default_size'
p1484
NsS'defaultFont'
p1485
(dp1486
g1463
V/home/philipp/anaconda2/lib/python2.7/site-packages/matplotlib/mpl-data/fonts/afm/ptmr8a.afm
p1487
sg1465
g207
ssS'afmfiles'
p1488
(lp1489
g1487
aV/home/philipp/anaconda2/lib/python2.7/site-packages/matplotlib/mpl-data/fonts/afm/pagko8a.afm
p1490
aV/home/philipp/anaconda2/lib/python2.7/site-packages/matplotlib/mpl-data/fonts/afm/putr8a.afm
p1491
aV/home/philipp/anaconda2/lib/python2.7/site-packages/matplotlib/mpl-data/fonts/afm/pcrro8a.afm
p1492
aV/home/philipp/anaconda2/lib/python2.7/site-packages/matplotlib/mpl-data/fonts/afm/pzcmi8a.afm
p1493
aV/home/philipp/anaconda2/lib/python2.7/site-packages/matplotlib/mpl-data/fonts/afm/cmex10.afm
p1494
aV/home/philipp/anaconda2/lib/python2.7/site-packages/matplotlib/mpl-data/fonts/afm/pplbi8a.afm
p1495
aV/home/philipp/anaconda2/lib/python2.7/site-packages/matplotlib/mpl-data/fonts/afm/pzdr.afm
p1496
aV/home/philipp/anaconda2/lib/python2.7/site-packages/matplotlib/mpl-data/fonts/afm/putb8a.afm
p1497
aV/home/philipp/anaconda2/lib/python2.7/site-packages/matplotlib/mpl-data/fonts/pdfcorefonts/ZapfDingbats.afm
p1498
aV/home/philipp/anaconda2/lib/python2.7/site-packages/matplotlib/mpl-data/fonts/pdfcorefonts/Times-Italic.afm
p1499
aV/home/philipp/anaconda2/lib/python2.7/site-packages/matplotlib/mpl-data/fonts/pdfcorefonts/Courier-Bold.afm
p1500
aV/home/philipp/anaconda2/lib/python2.7/site-packages/matplotlib/mpl-data/fonts/afm/pcrr8a.afm
p1501
aV/home/philipp/anaconda2/lib/python2.7/site-packages/matplotlib/mpl-data/fonts/afm/pbkdi8a.afm
p1502
aV/home/philipp/anaconda2/lib/python2.7/site-packages/matplotlib/mpl-data/fonts/afm/pncbi8a.afm
p1503
aV/home/philipp/anaconda2/lib/python2.7/site-packages/matplotlib/mpl-data/fonts/pdfcorefonts/Courier.afm
p1504
aV/home/philipp/anaconda2/lib/python2.7/site-packages/matplotlib/mpl-data/fonts/afm/cmmi10.afm
p1505
aV/home/philipp/anaconda2/lib/python2.7/site-packages/matplotlib/mpl-data/fonts/afm/phvl8a.afm
p1506
aV/home/philipp/anaconda2/lib/python2.7/site-packages/matplotlib/mpl-data/fonts/afm/cmsy10.afm
p1507
aV/home/philipp/anaconda2/lib/python2.7/site-packages/matplotlib/mpl-data/fonts/afm/pplb8a.afm
p1508
aV/home/philipp/anaconda2/lib/python2.7/site-packages/matplotlib/mpl-data/fonts/afm/pncb8a.afm
p1509
aV/home/philipp/anaconda2/lib/python2.7/site-packages/matplotlib/mpl-data/fonts/afm/pcrb8a.afm
p1510
aV/home/philipp/anaconda2/lib/python2.7/site-packages/matplotlib/mpl-data/fonts/pdfcorefonts/Courier-BoldOblique.afm
p1511
aV/home/philipp/anaconda2/lib/python2.7/site-packages/matplotlib/mpl-data/fonts/afm/phvbo8an.afm
p1512
aV/home/philipp/anaconda2/lib/python2.7/site-packages/matplotlib/mpl-data/fonts/afm/putri8a.afm
p1513
aV/home/philipp/anaconda2/lib/python2.7/site-packages/matplotlib/mpl-data/fonts/afm/pplr8a.afm
p1514
aV/home/philipp/anaconda2/lib/python2.7/site-packages/matplotlib/mpl-data/fonts/afm/pncr8a.afm
p1515
aV/home/philipp/anaconda2/lib/python2.7/site-packages/matplotlib/mpl-data/fonts/pdfcorefonts/Times-BoldItalic.afm
p1516
aV/home/philipp/anaconda2/lib/python2.7/site-packages/matplotlib/mpl-data/fonts/afm/psyr.afm
p1517
aV/home/philipp/anaconda2/lib/python2.7/site-packages/matplotlib/mpl-data/fonts/pdfcorefonts/Helvetica.afm
p1518
aV/home/philipp/anaconda2/lib/python2.7/site-packages/matplotlib/mpl-data/fonts/afm/phvro8an.afm
p1519
aV/home/philipp/anaconda2/lib/python2.7/site-packages/matplotlib/mpl-data/fonts/afm/pagdo8a.afm
p1520
aV/home/philipp/anaconda2/lib/python2.7/site-packages/matplotlib/mpl-data/fonts/pdfcorefonts/Helvetica-Oblique.afm
p1521
aV/home/philipp/anaconda2/lib/python2.7/site-packages/matplotlib/mpl-data/fonts/afm/phvr8an.afm
p1522
aV/home/philipp/anaconda2/lib/python2.7/site-packages/matplotlib/mpl-data/fonts/afm/pbkl8a.afm
p1523
aV/home/philipp/anaconda2/lib/python2.7/site-packages/matplotlib/mpl-data/fonts/pdfcorefonts/Times-Bold.afm
p1524
aV/home/philipp/anaconda2/lib/python2.7/site-packages/matplotlib/mpl-data/fonts/afm/phvbo8a.afm
p1525
aV/home/philipp/anaconda2/lib/python2.7/site-packages/matplotlib/mpl-data/fonts/afm/pncri8a.afm
p1526
aV/home/philipp/anaconda2/lib/python2.7/site-packages/matplotlib/mpl-data/fonts/afm/pbkli8a.afm
p1527
aV/home/philipp/anaconda2/lib/python2.7/site-packages/matplotlib/mpl-data/fonts/afm/pagd8a.afm
p1528
aV/home/philipp/anaconda2/lib/python2.7/site-packages/matplotlib/mpl-data/fonts/afm/phvb8an.afm
p1529
aV/home/philipp/anaconda2/lib/python2.7/site-packages/matplotlib/mpl-data/fonts/afm/phvlo8a.afm
p1530
aV/home/philipp/anaconda2/lib/python2.7/site-packages/matplotlib/mpl-data/fonts/afm/cmr10.afm
p1531
aV/home/philipp/anaconda2/lib/python2.7/site-packages/matplotlib/mpl-data/fonts/pdfcorefonts/Helvetica-BoldOblique.afm
p1532
aV/home/philipp/anaconda2/lib/python2.7/site-packages/matplotlib/mpl-data/fonts/afm/phvb8a.afm
p1533
aV/home/philipp/anaconda2/lib/python2.7/site-packages/matplotlib/mpl-data/fonts/afm/ptmbi8a.afm
p1534
aV/home/philipp/anaconda2/lib/python2.7/site-packages/matplotlib/mpl-data/fonts/pdfcorefonts/Helvetica-Bold.afm
p1535
aV/home/philipp/anaconda2/lib/python2.7/site-packages/matplotlib/mpl-data/fonts/pdfcorefonts/Courier-Oblique.afm
p1536
aV/home/philipp/anaconda2/lib/python2.7/site-packages/matplotlib/mpl-data/fonts/afm/putbi8a.afm
p1537
aV/home/philipp/anaconda2/lib/python2.7/site-packages/matplotlib/mpl-data/fonts/afm/ptmri8a.afm
p1538
aV/home/philipp/anaconda2/lib/python2.7/site-packages/matplotlib/mpl-data/fonts/afm/pagk8a.afm
p1539
aV/home/philipp/anaconda2/lib/python2.7/site-packages/matplotlib/mpl-data/fonts/afm/cmtt10.afm
p1540
aV/home/philipp/anaconda2/lib/python2.7/site-packages/matplotlib/mpl-data/fonts/afm/ptmb8a.afm
p1541
aV/home/philipp/anaconda2/lib/python2.7/site-packages/matplotlib/mpl-data/fonts/afm/phvr8a.afm
p1542
aV/home/philipp/anaconda2/lib/python2.7/site-packages/matplotlib/mpl-data/fonts/afm/pcrbo8a.afm
p1543
aV/home/philipp/anaconda2/lib/python2.7/site-packages/matplotlib/mpl-data/fonts/pdfcorefonts/Times-Roman.afm
p1544
aV/home/philipp/anaconda2/lib/python2.7/site-packages/matplotlib/mpl-data/fonts/afm/pbkd8a.afm
p1545
aV/home/philipp/anaconda2/lib/python2.7/site-packages/matplotlib/mpl-data/fonts/afm/pplri8a.afm
p1546
aV/home/philipp/anaconda2/lib/python2.7/site-packages/matplotlib/mpl-data/fonts/pdfcorefonts/Symbol.afm
p1547
aV/home/philipp/anaconda2/lib/python2.7/site-packages/matplotlib/mpl-data/fonts/afm/phvro8a.afm
p1548
aV/usr/share/fonts/type1/gsfonts/n021024l.afm
p1549
aV/usr/share/fonts/type1/gsfonts/n019024l.afm
p1550
aV/usr/share/fonts/type1/gsfonts/n021004l.afm
p1551
aV/usr/share/fonts/type1/gsfonts/s050000l.afm
p1552
aV/usr/share/fonts/type1/gsfonts/p052024l.afm
p1553
aV/usr/share/fonts/type1/gsfonts/p052004l.afm
p1554
aV/usr/share/fonts/X11/Type1/c0648bt_.afm
p1555
aV/usr/share/fonts/type1/gsfonts/b018012l.afm
p1556
aV/usr/share/fonts/type1/gsfonts/n022003l.afm
p1557
aV/usr/share/fonts/type1/gsfonts/b018015l.afm
p1558
aV/usr/share/fonts/type1/gsfonts/a010033l.afm
p1559
aV/usr/share/fonts/type1/gsfonts/n019044l.afm
p1560
aV/usr/share/fonts/type1/gsfonts/z003034l.afm
p1561
aV/usr/share/fonts/type1/gsfonts/n022024l.afm
p1562
aV/usr/share/fonts/type1/gsfonts/n019043l.afm
p1563
aV/usr/share/fonts/X11/Type1/c0633bt_.afm
p1564
aV/usr/share/fonts/X11/Type1/c0649bt_.afm
p1565
aV/usr/share/fonts/type1/gsfonts/n019064l.afm
p1566
aV/usr/share/fonts/type1/gsfonts/n019003l.afm
p1567
aV/usr/share/fonts/type1/gsfonts/d050000l.afm
p1568
aV/usr/share/fonts/type1/gsfonts/b018035l.afm
p1569
aV/usr/share/fonts/type1/gsfonts/a010013l.afm
p1570
aV/usr/share/fonts/X11/Type1/c0582bt_.afm
p1571
aV/usr/share/fonts/type1/gsfonts/n022004l.afm
p1572
aV/usr/share/fonts/X11/Type1/c0583bt_.afm
p1573
aV/usr/share/fonts/type1/gsfonts/p052023l.afm
p1574
aV/usr/share/fonts/type1/gsfonts/n021003l.afm
p1575
aV/usr/share/fonts/type1/gsfonts/c059033l.afm
p1576
aV/usr/share/fonts/type1/gsfonts/n019023l.afm
p1577
aV/usr/share/fonts/X11/Type1/c0611bt_.afm
p1578
aV/usr/share/fonts/type1/gsfonts/c059036l.afm
p1579
aV/usr/share/fonts/type1/gsfonts/n019004l.afm
p1580
aV/usr/share/fonts/type1/gsfonts/p052003l.afm
p1581
aV/usr/share/fonts/type1/gsfonts/a010015l.afm
p1582
aV/usr/share/fonts/type1/gsfonts/c059013l.afm
p1583
aV/usr/share/fonts/type1/gsfonts/b018032l.afm
p1584
aV/usr/share/fonts/type1/gsfonts/c059016l.afm
p1585
aV/usr/share/fonts/type1/gsfonts/n022023l.afm
p1586
aV/usr/share/fonts/type1/gsfonts/n021023l.afm
p1587
aV/usr/share/fonts/type1/gsfonts/a010035l.afm
p1588
aV/usr/share/fonts/type1/gsfonts/n019063l.afm
p1589
aV/usr/share/fonts/X11/Type1/c0632bt_.afm
p1590
aV/usr/share/fonts/X11/Type1/c0419bt_.afm
p1591
asS'afmlist'
p1592
(lp1593
g1
(g8
g3
NtRp1594
(dp1595
g11
Vnormal
p1596
sg13
S'Times'
p1597
sg15
I500
sg16
g1596
sg18
g1596
sg19
g1487
sg21
Vscalable
p1598
sbag1
(g8
g3
NtRp1599
(dp1600
g11
Vitalic
p1601
sg13
S'ITC Avant Garde Gothic'
p1602
sg15
I400
sg16
g1596
sg18
g1596
sg19
g1490
sg21
g1598
sbag1
(g8
g3
NtRp1603
(dp1604
g11
g1596
sg13
S'Utopia'
p1605
sg15
I400
sg16
g1596
sg18
g1596
sg19
g1491
sg21
g1598
sbag1
(g8
g3
NtRp1606
(dp1607
g11
g1601
sg13
S'Courier'
p1608
sg15
I500
sg16
g1596
sg18
g1596
sg19
g1492
sg21
g1598
sbag1
(g8
g3
NtRp1609
(dp1610
g11
g1601
sg13
S'ITC Zapf Chancery'
p1611
sg15
I500
sg16
g1596
sg18
g1596
sg19
g1493
sg21
g1598
sbag1
(g8
g3
NtRp1612
(dp1613
g11
g1596
sg13
S'Computer Modern'
p1614
sg15
I500
sg16
g1596
sg18
g1596
sg19
g1494
sg21
g1598
sbag1
(g8
g3
NtRp1615
(dp1616
g11
g1601
sg13
S'Palatino'
p1617
sg15
I700
sg16
g1596
sg18
g1596
sg19
g1495
sg21
g1598
sbag1
(g8
g3
NtRp1618
(dp1619
g11
g1596
sg13
S'ITC Zapf Dingbats'
p1620
sg15
I500
sg16
g1596
sg18
g1596
sg19
g1496
sg21
g1598
sbag1
(g8
g3
NtRp1621
(dp1622
g11
g1596
sg13
S'Utopia'
p1623
sg15
I700
sg16
g1596
sg18
g1596
sg19
g1497
sg21
g1598
sbag1
(g8
g3
NtRp1624
(dp1625
g11
g1596
sg13
S'ZapfDingbats'
p1626
sg15
I500
sg16
g1596
sg18
g1596
sg19
g1498
sg21
g1598
sbag1
(g8
g3
NtRp1627
(dp1628
g11
g1601
sg13
S'Times'
p1629
sg15
I500
sg16
g1596
sg18
g1596
sg19
g1499
sg21
g1598
sbag1
(g8
g3
NtRp1630
(dp1631
g11
g1596
sg13
S'Courier'
p1632
sg15
I700
sg16
g1596
sg18
g1596
sg19
g1500
sg21
g1598
sbag1
(g8
g3
NtRp1633
(dp1634
g11
g1596
sg13
S'Courier'
p1635
sg15
I500
sg16
g1596
sg18
g1596
sg19
g1501
sg21
g1598
sbag1
(g8
g3
NtRp1636
(dp1637
g11
g1601
sg13
S'ITC Bookman'
p1638
sg15
I600
sg16
g1596
sg18
g1596
sg19
g1502
sg21
g1598
sbag1
(g8
g3
NtRp1639
(dp1640
g11
g1601
sg13
S'New Century Schoolbook'
p1641
sg15
I700
sg16
g1596
sg18
g1596
sg19
g1503
sg21
g1598
sbag1
(g8
g3
NtRp1642
(dp1643
g11
g1596
sg13
S'Courier'
p1644
sg15
I500
sg16
g1596
sg18
g1596
sg19
g1504
sg21
g1598
sbag1
(g8
g3
NtRp1645
(dp1646
g11
g1601
sg13
S'Computer Modern'
p1647
sg15
I500
sg16
g1596
sg18
g1596
sg19
g1505
sg21
g1598
sbag1
(g8
g3
NtRp1648
(dp1649
g11
g1596
sg13
S'Helvetica'
p1650
sg15
I200
sg16
g1596
sg18
g1596
sg19
g1506
sg21
g1598
sbag1
(g8
g3
NtRp1651
(dp1652
g11
g1601
sg13
S'Computer Modern'
p1653
sg15
I500
sg16
g1596
sg18
g1596
sg19
g1507
sg21
g1598
sbag1
(g8
g3
NtRp1654
(dp1655
g11
g1596
sg13
S'Palatino'
p1656
sg15
I700
sg16
g1596
sg18
g1596
sg19
g1508
sg21
g1598
sbag1
(g8
g3
NtRp1657
(dp1658
g11
g1596
sg13
S'New Century Schoolbook'
p1659
sg15
I700
sg16
g1596
sg18
g1596
sg19
g1509
sg21
g1598
sbag1
(g8
g3
NtRp1660
(dp1661
g11
g1596
sg13
S'Courier'
p1662
sg15
I700
sg16
g1596
sg18
g1596
sg19
g1510
sg21
g1598
sbag1
(g8
g3
NtRp1663
(dp1664
g11
g1601
sg13
S'Courier'
p1665
sg15
I700
sg16
g1596
sg18
g1596
sg19
g1511
sg21
g1598
sbag1
(g8
g3
NtRp1666
(dp1667
g11
g1601
sg13
S'Helvetica'
p1668
sg15
I700
sg16
Vcondensed
p1669
sg18
g1596
sg19
g1512
sg21
g1598
sbag1
(g8
g3
NtRp1670
(dp1671
g11
g1601
sg13
S'Utopia'
p1672
sg15
I400
sg16
g1596
sg18
g1596
sg19
g1513
sg21
g1598
sbag1
(g8
g3
NtRp1673
(dp1674
g11
g1596
sg13
S'Palatino'
p1675
sg15
I500
sg16
g1596
sg18
g1596
sg19
g1514
sg21
g1598
sbag1
(g8
g3
NtRp1676
(dp1677
g11
g1596
sg13
S'New Century Schoolbook'
p1678
sg15
I500
sg16
g1596
sg18
g1596
sg19
g1515
sg21
g1598
sbag1
(g8
g3
NtRp1679
(dp1680
g11
g1601
sg13
S'Times'
p1681
sg15
I700
sg16
g1596
sg18
g1596
sg19
g1516
sg21
g1598
sbag1
(g8
g3
NtRp1682
(dp1683
g11
g1596
sg13
S'Symbol'
p1684
sg15
I500
sg16
g1596
sg18
g1596
sg19
g1517
sg21
g1598
sbag1
(g8
g3
NtRp1685
(dp1686
g11
g1596
sg13
S'Helvetica'
p1687
sg15
I500
sg16
g1596
sg18
g1596
sg19
g1518
sg21
g1598
sbag1
(g8
g3
NtRp1688
(dp1689
g11
g1601
sg13
S'Helvetica'
p1690
sg15
I500
sg16
g1669
sg18
g1596
sg19
g1519
sg21
g1598
sbag1
(g8
g3
NtRp1691
(dp1692
g11
g1601
sg13
S'ITC Avant Garde Gothic'
p1693
sg15
I600
sg16
g1596
sg18
g1596
sg19
g1520
sg21
g1598
sbag1
(g8
g3
NtRp1694
(dp1695
g11
g1601
sg13
S'Helvetica'
p1696
sg15
I500
sg16
g1596
sg18
g1596
sg19
g1521
sg21
g1598
sbag1
(g8
g3
NtRp1697
(dp1698
g11
g1596
sg13
S'Helvetica'
p1699
sg15
I500
sg16
g1669
sg18
g1596
sg19
g1522
sg21
g1598
sbag1
(g8
g3
NtRp1700
(dp1701
g11
g1596
sg13
S'ITC Bookman'
p1702
sg15
I200
sg16
g1596
sg18
g1596
sg19
g1523
sg21
g1598
sbag1
(g8
g3
NtRp1703
(dp1704
g11
g1596
sg13
S'Times'
p1705
sg15
I700
sg16
g1596
sg18
g1596
sg19
g1524
sg21
g1598
sbag1
(g8
g3
NtRp1706
(dp1707
g11
g1601
sg13
S'Helvetica'
p1708
sg15
I700
sg16
g1596
sg18
g1596
sg19
g1525
sg21
g1598
sbag1
(g8
g3
NtRp1709
(dp1710
g11
g1601
sg13
S'New Century Schoolbook'
p1711
sg15
I500
sg16
g1596
sg18
g1596
sg19
g1526
sg21
g1598
sbag1
(g8
g3
NtRp1712
(dp1713
g11
g1601
sg13
S'ITC Bookman'
p1714
sg15
I200
sg16
g1596
sg18
g1596
sg19
g1527
sg21
g1598
sbag1
(g8
g3
NtRp1715
(dp1716
g11
g1596
sg13
S'ITC Avant Garde Gothic'
p1717
sg15
I600
sg16
g1596
sg18
g1596
sg19
g1528
sg21
g1598
sbag1
(g8
g3
NtRp1718
(dp1719
g11
g1596
sg13
S'Helvetica'
p1720
sg15
I700
sg16
g1669
sg18
g1596
sg19
g1529
sg21
g1598
sbag1
(g8
g3
NtRp1721
(dp1722
g11
g1601
sg13
S'Helvetica'
p1723
sg15
I200
sg16
g1596
sg18
g1596
sg19
g1530
sg21
g1598
sbag1
(g8
g3
NtRp1724
(dp1725
g11
g1596
sg13
S'Computer Modern'
p1726
sg15
I500
sg16
g1596
sg18
g1596
sg19
g1531
sg21
g1598
sbag1
(g8
g3
NtRp1727
(dp1728
g11
g1601
sg13
S'Helvetica'
p1729
sg15
I700
sg16
g1596
sg18
g1596
sg19
g1532
sg21
g1598
sbag1
(g8
g3
NtRp1730
(dp1731
g11
g1596
sg13
S'Helvetica'
p1732
sg15
I700
sg16
g1596
sg18
g1596
sg19
g1533
sg21
g1598
sbag1
(g8
g3
NtRp1733
(dp1734
g11
g1601
sg13
S'Times'
p1735
sg15
I700
sg16
g1596
sg18
g1596
sg19
g1534
sg21
g1598
sbag1
(g8
g3
NtRp1736
(dp1737
g11
g1596
sg13
S'Helvetica'
p1738
sg15
I700
sg16
g1596
sg18
g1596
sg19
g1535
sg21
g1598
sbag1
(g8
g3
NtRp1739
(dp1740
g11
g1601
sg13
S'Courier'
p1741
sg15
I500
sg16
g1596
sg18
g1596
sg19
g1536
sg21
g1598
sbag1
(g8
g3
NtRp1742
(dp1743
g11
g1601
sg13
S'Utopia'
p1744
sg15
I700
sg16
g1596
sg18
g1596
sg19
g1537
sg21
g1598
sbag1
(g8
g3
NtRp1745
(dp1746
g11
g1601
sg13
S'Times'
p1747
sg15
I500
sg16
g1596
sg18
g1596
sg19
g1538
sg21
g1598
sbag1
(g8
g3
NtRp1748
(dp1749
g11
g1596
sg13
S'ITC Avant Garde Gothic'
p1750
sg15
I400
sg16
g1596
sg18
g1596
sg19
g1539
sg21
g1598
sbag1
(g8
g3
NtRp1751
(dp1752
g11
g1596
sg13
S'Computer Modern'
p1753
sg15
I500
sg16
g1596
sg18
g1596
sg19
g1540
sg21
g1598
sbag1
(g8
g3
NtRp1754
(dp1755
g11
g1596
sg13
S'Times'
p1756
sg15
I700
sg16
g1596
sg18
g1596
sg19
g1541
sg21
g1598
sbag1
(g8
g3
NtRp1757
(dp1758
g11
g1596
sg13
S'Helvetica'
p1759
sg15
I500
sg16
g1596
sg18
g1596
sg19
g1542
sg21
g1598
sbag1
(g8
g3
NtRp1760
(dp1761
g11
g1601
sg13
S'Courier'
p1762
sg15
I700
sg16
g1596
sg18
g1596
sg19
g1543
sg21
g1598
sbag1
(g8
g3
NtRp1763
(dp1764
g11
g1596
sg13
S'Times'
p1765
sg15
I500
sg16
g1596
sg18
g1596
sg19
g1544
sg21
g1598
sbag1
(g8
g3
NtRp1766
(dp1767
g11
g1596
sg13
S'ITC Bookman'
p1768
sg15
I600
sg16
g1596
sg18
g1596
sg19
g1545
sg21
g1598
sbag1
(g8
g3
NtRp1769
(dp1770
g11
g1601
sg13
S'Palatino'
p1771
sg15
I500
sg16
g1596
sg18
g1596
sg19
g1546
sg21
g1598
sbag1
(g8
g3
NtRp1772
(dp1773
g11
g1596
sg13
S'Symbol'
p1774
sg15
I500
sg16
g1596
sg18
g1596
sg19
g1547
sg21
g1598
sbag1
(g8
g3
NtRp1775
(dp1776
g11
g1601
sg13
S'Helvetica'
p1777
sg15
I500
sg16
g1596
sg18
g1596
sg19
g1548
sg21
g1598
sbag1
(g8
g3
NtRp1778
(dp1779
g11
g1601
sg13
S'Nimbus Roman No9 L'
p1780
sg15
I700
sg16
g1596
sg18
g1596
sg19
g1549
sg21
g1598
sbag1
(g8
g3
NtRp1781
(dp1782
g11
g1601
sg13
S'Nimbus Sans L'
p1783
sg15
I700
sg16
g1596
sg18
g1596
sg19
g1550
sg21
g1598
sbag1
(g8
g3
NtRp1784
(dp1785
g11
g1596
sg13
S'Nimbus Roman No9 L'
p1786
sg15
I700
sg16
g1596
sg18
g1596
sg19
g1551
sg21
g1598
sbag1
(g8
g3
NtRp1787
(dp1788
g11
g1596
sg13
S'Standard Symbols L'
p1789
sg15
I400
sg16
g1596
sg18
g1596
sg19
g1552
sg21
g1598
sbag1
(g8
g3
NtRp1790
(dp1791
g11
g1601
sg13
S'URW Palladio L'
p1792
sg15
I700
sg16
g1596
sg18
g1596
sg19
g1553
sg21
g1598
sbag1
(g8
g3
NtRp1793
(dp1794
g11
g1596
sg13
S'URW Palladio L'
p1795
sg15
I700
sg16
g1596
sg18
g1596
sg19
g1554
sg21
g1598
sbag1
(g8
g3
NtRp1796
(dp1797
g11
g1596
sg13
S'Bitstream Charter'
p1798
sg15
I400
sg16
g1596
sg18
g1596
sg19
g1555
sg21
g1598
sbag1
(g8
g3
NtRp1799
(dp1800
g11
g1596
sg13
S'URW Bookman L'
p1801
sg15
I400
sg16
g1596
sg18
g1596
sg19
g1556
sg21
g1598
sbag1
(g8
g3
NtRp1802
(dp1803
g11
g1596
sg13
S'Nimbus Mono L'
p1804
sg15
I400
sg16
g1596
sg18
g1596
sg19
g1557
sg21
g1598
sbag1
(g8
g3
NtRp1805
(dp1806
g11
g1596
sg13
S'URW Bookman L'
p1807
sg15
I700
sg16
g1596
sg18
g1596
sg19
g1558
sg21
g1598
sbag1
(g8
g3
NtRp1808
(dp1809
g11
g1601
sg13
S'URW Gothic L'
p1810
sg15
I400
sg16
g1596
sg18
g1596
sg19
g1559
sg21
g1598
sbag1
(g8
g3
NtRp1811
(dp1812
g11
g1596
sg13
S'Nimbus Sans L'
p1813
sg15
I700
sg16
g1669
sg18
g1596
sg19
g1560
sg21
g1598
sbag1
(g8
g3
NtRp1814
(dp1815
g11
g1601
sg13
S'URW Chancery L'
p1816
sg15
I500
sg16
g1596
sg18
g1596
sg19
g1561
sg21
g1598
sbag1
(g8
g3
NtRp1817
(dp1818
g11
g1601
sg13
S'Nimbus Mono L'
p1819
sg15
I700
sg16
g1596
sg18
g1596
sg19
g1562
sg21
g1598
sbag1
(g8
g3
NtRp1820
(dp1821
g11
g1596
sg13
S'Nimbus Sans L'
p1822
sg15
I400
sg16
g1669
sg18
g1596
sg19
g1563
sg21
g1598
sbag1
(g8
g3
NtRp1823
(dp1824
g11
g1601
sg13
S'Bitstream Charter'
p1825
sg15
I700
sg16
g1596
sg18
g1596
sg19
g1564
sg21
g1598
sbag1
(g8
g3
NtRp1826
(dp1827
g11
g1601
sg13
S'Bitstream Charter'
p1828
sg15
I400
sg16
g1596
sg18
g1596
sg19
g1565
sg21
g1598
sbag1
(g8
g3
NtRp1829
(dp1830
g11
g1601
sg13
S'Nimbus Sans L'
p1831
sg15
I700
sg16
g1669
sg18
g1596
sg19
g1566
sg21
g1598
sbag1
(g8
g3
NtRp1832
(dp1833
g11
g1596
sg13
S'Nimbus Sans L'
p1834
sg15
I400
sg16
g1596
sg18
g1596
sg19
g1567
sg21
g1598
sbag1
(g8
g3
NtRp1835
(dp1836
g11
g1596
sg13
S'Dingbats'
p1837
sg15
I400
sg16
g1596
sg18
g1596
sg19
g1568
sg21
g1598
sbag1
(g8
g3
NtRp1838
(dp1839
g11
g1601
sg13
S'URW Bookman L'
p1840
sg15
I700
sg16
g1596
sg18
g1596
sg19
g1569
sg21
g1598
sbag1
(g8
g3
NtRp1841
(dp1842
g11
g1596
sg13
S'URW Gothic L'
p1843
sg15
I400
sg16
g1596
sg18
g1596
sg19
g1570
sg21
g1598
sbag1
(g8
g3
NtRp1844
(dp1845
g11
g1601
sg13
S'Courier 10 Pitch'
p1846
sg15
I400
sg16
g1596
sg18
g1596
sg19
g1571
sg21
g1598
sbag1
(g8
g3
NtRp1847
(dp1848
g11
g1596
sg13
S'Nimbus Mono L'
p1849
sg15
I700
sg16
g1596
sg18
g1596
sg19
g1572
sg21
g1598
sbag1
(g8
g3
NtRp1850
(dp1851
g11
g1596
sg13
S'Courier 10 Pitch'
p1852
sg15
I700
sg16
g1596
sg18
g1596
sg19
g1573
sg21
g1598
sbag1
(g8
g3
NtRp1853
(dp1854
g11
g1601
sg13
S'URW Palladio L'
p1855
sg15
I400
sg16
g1596
sg18
g1596
sg19
g1574
sg21
g1598
sbag1
(g8
g3
NtRp1856
(dp1857
g11
g1596
sg13
S'Nimbus Roman No9 L'
p1858
sg15
I400
sg16
g1596
sg18
g1596
sg19
g1575
sg21
g1598
sbag1
(g8
g3
NtRp1859
(dp1860
g11
g1601
sg13
S'Century Schoolbook L'
p1861
sg15
I400
sg16
g1596
sg18
g1596
sg19
g1576
sg21
g1598
sbag1
(g8
g3
NtRp1862
(dp1863
g11
g1601
sg13
S'Nimbus Sans L'
p1864
sg15
I400
sg16
g1596
sg18
g1596
sg19
g1577
sg21
g1598
sbag1
(g8
g3
NtRp1865
(dp1866
g11
g1601
sg13
S'Courier 10 Pitch'
p1867
sg15
I700
sg16
g1596
sg18
g1596
sg19
g1578
sg21
g1598
sbag1
(g8
g3
NtRp1868
(dp1869
g11
g1601
sg13
S'Century Schoolbook L'
p1870
sg15
I700
sg16
g1596
sg18
g1596
sg19
g1579
sg21
g1598
sbag1
(g8
g3
NtRp1871
(dp1872
g11
g1596
sg13
S'Nimbus Sans L'
p1873
sg15
I700
sg16
g1596
sg18
g1596
sg19
g1580
sg21
g1598
sbag1
(g8
g3
NtRp1874
(dp1875
g11
g1596
sg13
S'URW Palladio L'
p1876
sg15
I500
sg16
g1596
sg18
g1596
sg19
g1581
sg21
g1598
sbag1
(g8
g3
NtRp1877
(dp1878
g11
g1596
sg13
S'URW Gothic L'
p1879
sg15
I600
sg16
g1596
sg18
g1596
sg19
g1582
sg21
g1598
sbag1
(g8
g3
NtRp1880
(dp1881
g11
g1596
sg13
S'Century Schoolbook L'
p1882
sg15
I500
sg16
g1596
sg18
g1596
sg19
g1583
sg21
g1598
sbag1
(g8
g3
NtRp1883
(dp1884
g11
g1601
sg13
S'URW Bookman L'
p1885
sg15
I400
sg16
g1596
sg18
g1596
sg19
g1584
sg21
g1598
sbag1
(g8
g3
NtRp1886
(dp1887
g11
g1596
sg13
S'Century Schoolbook L'
p1888
sg15
I700
sg16
g1596
sg18
g1596
sg19
g1585
sg21
g1598
sbag1
(g8
g3
NtRp1889
(dp1890
g11
g1601
sg13
S'Nimbus Mono L'
p1891
sg15
I400
sg16
g1596
sg18
g1596
sg19
g1586
sg21
g1598
sbag1
(g8
g3
NtRp1892
(dp1893
g11
g1601
sg13
S'Nimbus Roman No9 L'
p1894
sg15
I400
sg16
g1596
sg18
g1596
sg19
g1587
sg21
g1598
sbag1
(g8
g3
NtRp1895
(dp1896
g11
g1601
sg13
S'URW Gothic L'
p1897
sg15
I600
sg16
g1596
sg18
g1596
sg19
g1588
sg21
g1598
sbag1
(g8
g3
NtRp1898
(dp1899
g11
g1601
sg13
S'Nimbus Sans L'
p1900
sg15
I400
sg16
g1669
sg18
g1596
sg19
g1589
sg21
g1598
sbag1
(g8
g3
NtRp1901
(dp1902
g11
g1596
sg13
S'Bitstream Charter'
p1903
sg15
I700
sg16
g1596
sg18
g1596
sg19
g1590
sg21
g1598
sbag1
(g8
g3
NtRp1904
(dp1905
g11
g1596
sg13
S'Courier 10 Pitch'
p1906
sg15
I400
sg16
g1596
sg18
g1596
sg19
g1591
sg21
g1598
sbasb.